
EPS_Firmware.elf:     file format elf32-littlearm

Sections:
Idx Name          Size      VMA       LMA       File off  Algn
  0 .isr_vector   0000018c  08000000  08000000  00010000  2**0
                  CONTENTS, ALLOC, LOAD, READONLY, DATA
  1 .text         00005754  08000190  08000190  00010190  2**4
                  CONTENTS, ALLOC, LOAD, READONLY, CODE
  2 .rodata       0000015c  080058e4  080058e4  000158e4  2**2
                  CONTENTS, ALLOC, LOAD, READONLY, DATA
  3 .ARM.extab    00000000  08005a40  08005a40  00020074  2**0
                  CONTENTS
  4 .ARM          00000008  08005a40  08005a40  00015a40  2**2
                  CONTENTS, ALLOC, LOAD, READONLY, DATA
  5 .preinit_array 00000000  08005a48  08005a48  00020074  2**0
                  CONTENTS, ALLOC, LOAD, DATA
  6 .init_array   00000004  08005a48  08005a48  00015a48  2**2
                  CONTENTS, ALLOC, LOAD, DATA
  7 .fini_array   00000004  08005a4c  08005a4c  00015a4c  2**2
                  CONTENTS, ALLOC, LOAD, DATA
  8 .data         00000074  20000000  08005a50  00020000  2**2
                  CONTENTS, ALLOC, LOAD, DATA
  9 .bss          00002d30  20000074  08005ac4  00020074  2**2
                  ALLOC
 10 ._user_heap_stack 00001404  20002da4  08005ac4  00022da4  2**0
                  ALLOC
 11 .ARM.attributes 00000030  00000000  00000000  00020074  2**0
                  CONTENTS, READONLY
 12 .comment      00000050  00000000  00000000  000200a4  2**0
                  CONTENTS, READONLY
 13 .debug_frame  000003e0  00000000  00000000  000200f4  2**2
                  CONTENTS, READONLY, DEBUGGING, OCTETS

Disassembly of section .text:

08000190 <__do_global_dtors_aux>:
 8000190:	b510      	push	{r4, lr}
 8000192:	4c05      	ldr	r4, [pc, #20]	; (80001a8 <__do_global_dtors_aux+0x18>)
 8000194:	7823      	ldrb	r3, [r4, #0]
 8000196:	b933      	cbnz	r3, 80001a6 <__do_global_dtors_aux+0x16>
 8000198:	4b04      	ldr	r3, [pc, #16]	; (80001ac <__do_global_dtors_aux+0x1c>)
 800019a:	b113      	cbz	r3, 80001a2 <__do_global_dtors_aux+0x12>
 800019c:	4804      	ldr	r0, [pc, #16]	; (80001b0 <__do_global_dtors_aux+0x20>)
 800019e:	f3af 8000 	nop.w
 80001a2:	2301      	movs	r3, #1
 80001a4:	7023      	strb	r3, [r4, #0]
 80001a6:	bd10      	pop	{r4, pc}
 80001a8:	20000074 	.word	0x20000074
 80001ac:	00000000 	.word	0x00000000
 80001b0:	080058cc 	.word	0x080058cc

080001b4 <frame_dummy>:
 80001b4:	b508      	push	{r3, lr}
 80001b6:	4b03      	ldr	r3, [pc, #12]	; (80001c4 <frame_dummy+0x10>)
 80001b8:	b11b      	cbz	r3, 80001c2 <frame_dummy+0xe>
 80001ba:	4903      	ldr	r1, [pc, #12]	; (80001c8 <frame_dummy+0x14>)
 80001bc:	4803      	ldr	r0, [pc, #12]	; (80001cc <frame_dummy+0x18>)
 80001be:	f3af 8000 	nop.w
 80001c2:	bd08      	pop	{r3, pc}
 80001c4:	00000000 	.word	0x00000000
 80001c8:	20000078 	.word	0x20000078
 80001cc:	080058cc 	.word	0x080058cc

080001d0 <__aeabi_uldivmod>:
 80001d0:	b953      	cbnz	r3, 80001e8 <__aeabi_uldivmod+0x18>
 80001d2:	b94a      	cbnz	r2, 80001e8 <__aeabi_uldivmod+0x18>
 80001d4:	2900      	cmp	r1, #0
 80001d6:	bf08      	it	eq
 80001d8:	2800      	cmpeq	r0, #0
 80001da:	bf1c      	itt	ne
 80001dc:	f04f 31ff 	movne.w	r1, #4294967295	; 0xffffffff
 80001e0:	f04f 30ff 	movne.w	r0, #4294967295	; 0xffffffff
 80001e4:	f000 b974 	b.w	80004d0 <__aeabi_idiv0>
 80001e8:	f1ad 0c08 	sub.w	ip, sp, #8
 80001ec:	e96d ce04 	strd	ip, lr, [sp, #-16]!
 80001f0:	f000 f806 	bl	8000200 <__udivmoddi4>
 80001f4:	f8dd e004 	ldr.w	lr, [sp, #4]
 80001f8:	e9dd 2302 	ldrd	r2, r3, [sp, #8]
 80001fc:	b004      	add	sp, #16
 80001fe:	4770      	bx	lr

08000200 <__udivmoddi4>:
 8000200:	e92d 47f0 	stmdb	sp!, {r4, r5, r6, r7, r8, r9, sl, lr}
 8000204:	9d08      	ldr	r5, [sp, #32]
 8000206:	4604      	mov	r4, r0
 8000208:	468e      	mov	lr, r1
 800020a:	2b00      	cmp	r3, #0
 800020c:	d14d      	bne.n	80002aa <__udivmoddi4+0xaa>
 800020e:	428a      	cmp	r2, r1
 8000210:	4694      	mov	ip, r2
 8000212:	d969      	bls.n	80002e8 <__udivmoddi4+0xe8>
 8000214:	fab2 f282 	clz	r2, r2
 8000218:	b152      	cbz	r2, 8000230 <__udivmoddi4+0x30>
 800021a:	fa01 f302 	lsl.w	r3, r1, r2
 800021e:	f1c2 0120 	rsb	r1, r2, #32
 8000222:	fa20 f101 	lsr.w	r1, r0, r1
 8000226:	fa0c fc02 	lsl.w	ip, ip, r2
 800022a:	ea41 0e03 	orr.w	lr, r1, r3
 800022e:	4094      	lsls	r4, r2
 8000230:	ea4f 481c 	mov.w	r8, ip, lsr #16
 8000234:	0c21      	lsrs	r1, r4, #16
 8000236:	fbbe f6f8 	udiv	r6, lr, r8
 800023a:	fa1f f78c 	uxth.w	r7, ip
 800023e:	fb08 e316 	mls	r3, r8, r6, lr
 8000242:	ea41 4303 	orr.w	r3, r1, r3, lsl #16
 8000246:	fb06 f107 	mul.w	r1, r6, r7
 800024a:	4299      	cmp	r1, r3
 800024c:	d90a      	bls.n	8000264 <__udivmoddi4+0x64>
 800024e:	eb1c 0303 	adds.w	r3, ip, r3
 8000252:	f106 30ff 	add.w	r0, r6, #4294967295	; 0xffffffff
 8000256:	f080 811f 	bcs.w	8000498 <__udivmoddi4+0x298>
 800025a:	4299      	cmp	r1, r3
 800025c:	f240 811c 	bls.w	8000498 <__udivmoddi4+0x298>
 8000260:	3e02      	subs	r6, #2
 8000262:	4463      	add	r3, ip
 8000264:	1a5b      	subs	r3, r3, r1
 8000266:	b2a4      	uxth	r4, r4
 8000268:	fbb3 f0f8 	udiv	r0, r3, r8
 800026c:	fb08 3310 	mls	r3, r8, r0, r3
 8000270:	ea44 4403 	orr.w	r4, r4, r3, lsl #16
 8000274:	fb00 f707 	mul.w	r7, r0, r7
 8000278:	42a7      	cmp	r7, r4
 800027a:	d90a      	bls.n	8000292 <__udivmoddi4+0x92>
 800027c:	eb1c 0404 	adds.w	r4, ip, r4
 8000280:	f100 33ff 	add.w	r3, r0, #4294967295	; 0xffffffff
 8000284:	f080 810a 	bcs.w	800049c <__udivmoddi4+0x29c>
 8000288:	42a7      	cmp	r7, r4
 800028a:	f240 8107 	bls.w	800049c <__udivmoddi4+0x29c>
 800028e:	4464      	add	r4, ip
 8000290:	3802      	subs	r0, #2
 8000292:	ea40 4006 	orr.w	r0, r0, r6, lsl #16
 8000296:	1be4      	subs	r4, r4, r7
 8000298:	2600      	movs	r6, #0
 800029a:	b11d      	cbz	r5, 80002a4 <__udivmoddi4+0xa4>
 800029c:	40d4      	lsrs	r4, r2
 800029e:	2300      	movs	r3, #0
 80002a0:	e9c5 4300 	strd	r4, r3, [r5]
 80002a4:	4631      	mov	r1, r6
 80002a6:	e8bd 87f0 	ldmia.w	sp!, {r4, r5, r6, r7, r8, r9, sl, pc}
 80002aa:	428b      	cmp	r3, r1
 80002ac:	d909      	bls.n	80002c2 <__udivmoddi4+0xc2>
 80002ae:	2d00      	cmp	r5, #0
 80002b0:	f000 80ef 	beq.w	8000492 <__udivmoddi4+0x292>
 80002b4:	2600      	movs	r6, #0
 80002b6:	e9c5 0100 	strd	r0, r1, [r5]
 80002ba:	4630      	mov	r0, r6
 80002bc:	4631      	mov	r1, r6
 80002be:	e8bd 87f0 	ldmia.w	sp!, {r4, r5, r6, r7, r8, r9, sl, pc}
 80002c2:	fab3 f683 	clz	r6, r3
 80002c6:	2e00      	cmp	r6, #0
 80002c8:	d14a      	bne.n	8000360 <__udivmoddi4+0x160>
 80002ca:	428b      	cmp	r3, r1
 80002cc:	d302      	bcc.n	80002d4 <__udivmoddi4+0xd4>
 80002ce:	4282      	cmp	r2, r0
 80002d0:	f200 80f9 	bhi.w	80004c6 <__udivmoddi4+0x2c6>
 80002d4:	1a84      	subs	r4, r0, r2
 80002d6:	eb61 0303 	sbc.w	r3, r1, r3
 80002da:	2001      	movs	r0, #1
 80002dc:	469e      	mov	lr, r3
 80002de:	2d00      	cmp	r5, #0
 80002e0:	d0e0      	beq.n	80002a4 <__udivmoddi4+0xa4>
 80002e2:	e9c5 4e00 	strd	r4, lr, [r5]
 80002e6:	e7dd      	b.n	80002a4 <__udivmoddi4+0xa4>
 80002e8:	b902      	cbnz	r2, 80002ec <__udivmoddi4+0xec>
 80002ea:	deff      	udf	#255	; 0xff
 80002ec:	fab2 f282 	clz	r2, r2
 80002f0:	2a00      	cmp	r2, #0
 80002f2:	f040 8092 	bne.w	800041a <__udivmoddi4+0x21a>
 80002f6:	eba1 010c 	sub.w	r1, r1, ip
 80002fa:	ea4f 471c 	mov.w	r7, ip, lsr #16
 80002fe:	fa1f fe8c 	uxth.w	lr, ip
 8000302:	2601      	movs	r6, #1
 8000304:	0c20      	lsrs	r0, r4, #16
 8000306:	fbb1 f3f7 	udiv	r3, r1, r7
 800030a:	fb07 1113 	mls	r1, r7, r3, r1
 800030e:	ea40 4101 	orr.w	r1, r0, r1, lsl #16
 8000312:	fb0e f003 	mul.w	r0, lr, r3
 8000316:	4288      	cmp	r0, r1
 8000318:	d908      	bls.n	800032c <__udivmoddi4+0x12c>
 800031a:	eb1c 0101 	adds.w	r1, ip, r1
 800031e:	f103 38ff 	add.w	r8, r3, #4294967295	; 0xffffffff
 8000322:	d202      	bcs.n	800032a <__udivmoddi4+0x12a>
 8000324:	4288      	cmp	r0, r1
 8000326:	f200 80cb 	bhi.w	80004c0 <__udivmoddi4+0x2c0>
 800032a:	4643      	mov	r3, r8
 800032c:	1a09      	subs	r1, r1, r0
 800032e:	b2a4      	uxth	r4, r4
 8000330:	fbb1 f0f7 	udiv	r0, r1, r7
 8000334:	fb07 1110 	mls	r1, r7, r0, r1
 8000338:	ea44 4401 	orr.w	r4, r4, r1, lsl #16
 800033c:	fb0e fe00 	mul.w	lr, lr, r0
 8000340:	45a6      	cmp	lr, r4
 8000342:	d908      	bls.n	8000356 <__udivmoddi4+0x156>
 8000344:	eb1c 0404 	adds.w	r4, ip, r4
 8000348:	f100 31ff 	add.w	r1, r0, #4294967295	; 0xffffffff
 800034c:	d202      	bcs.n	8000354 <__udivmoddi4+0x154>
 800034e:	45a6      	cmp	lr, r4
 8000350:	f200 80bb 	bhi.w	80004ca <__udivmoddi4+0x2ca>
 8000354:	4608      	mov	r0, r1
 8000356:	eba4 040e 	sub.w	r4, r4, lr
 800035a:	ea40 4003 	orr.w	r0, r0, r3, lsl #16
 800035e:	e79c      	b.n	800029a <__udivmoddi4+0x9a>
 8000360:	f1c6 0720 	rsb	r7, r6, #32
 8000364:	40b3      	lsls	r3, r6
 8000366:	fa22 fc07 	lsr.w	ip, r2, r7
 800036a:	ea4c 0c03 	orr.w	ip, ip, r3
 800036e:	fa20 f407 	lsr.w	r4, r0, r7
 8000372:	fa01 f306 	lsl.w	r3, r1, r6
 8000376:	431c      	orrs	r4, r3
 8000378:	40f9      	lsrs	r1, r7
 800037a:	ea4f 491c 	mov.w	r9, ip, lsr #16
 800037e:	fa00 f306 	lsl.w	r3, r0, r6
 8000382:	fbb1 f8f9 	udiv	r8, r1, r9
 8000386:	0c20      	lsrs	r0, r4, #16
 8000388:	fa1f fe8c 	uxth.w	lr, ip
 800038c:	fb09 1118 	mls	r1, r9, r8, r1
 8000390:	ea40 4101 	orr.w	r1, r0, r1, lsl #16
 8000394:	fb08 f00e 	mul.w	r0, r8, lr
 8000398:	4288      	cmp	r0, r1
 800039a:	fa02 f206 	lsl.w	r2, r2, r6
 800039e:	d90b      	bls.n	80003b8 <__udivmoddi4+0x1b8>
 80003a0:	eb1c 0101 	adds.w	r1, ip, r1
 80003a4:	f108 3aff 	add.w	sl, r8, #4294967295	; 0xffffffff
 80003a8:	f080 8088 	bcs.w	80004bc <__udivmoddi4+0x2bc>
 80003ac:	4288      	cmp	r0, r1
 80003ae:	f240 8085 	bls.w	80004bc <__udivmoddi4+0x2bc>
 80003b2:	f1a8 0802 	sub.w	r8, r8, #2
 80003b6:	4461      	add	r1, ip
 80003b8:	1a09      	subs	r1, r1, r0
 80003ba:	b2a4      	uxth	r4, r4
 80003bc:	fbb1 f0f9 	udiv	r0, r1, r9
 80003c0:	fb09 1110 	mls	r1, r9, r0, r1
 80003c4:	ea44 4101 	orr.w	r1, r4, r1, lsl #16
 80003c8:	fb00 fe0e 	mul.w	lr, r0, lr
 80003cc:	458e      	cmp	lr, r1
 80003ce:	d908      	bls.n	80003e2 <__udivmoddi4+0x1e2>
 80003d0:	eb1c 0101 	adds.w	r1, ip, r1
 80003d4:	f100 34ff 	add.w	r4, r0, #4294967295	; 0xffffffff
 80003d8:	d26c      	bcs.n	80004b4 <__udivmoddi4+0x2b4>
 80003da:	458e      	cmp	lr, r1
 80003dc:	d96a      	bls.n	80004b4 <__udivmoddi4+0x2b4>
 80003de:	3802      	subs	r0, #2
 80003e0:	4461      	add	r1, ip
 80003e2:	ea40 4008 	orr.w	r0, r0, r8, lsl #16
 80003e6:	fba0 9402 	umull	r9, r4, r0, r2
 80003ea:	eba1 010e 	sub.w	r1, r1, lr
 80003ee:	42a1      	cmp	r1, r4
 80003f0:	46c8      	mov	r8, r9
 80003f2:	46a6      	mov	lr, r4
 80003f4:	d356      	bcc.n	80004a4 <__udivmoddi4+0x2a4>
 80003f6:	d053      	beq.n	80004a0 <__udivmoddi4+0x2a0>
 80003f8:	b15d      	cbz	r5, 8000412 <__udivmoddi4+0x212>
 80003fa:	ebb3 0208 	subs.w	r2, r3, r8
 80003fe:	eb61 010e 	sbc.w	r1, r1, lr
 8000402:	fa01 f707 	lsl.w	r7, r1, r7
 8000406:	fa22 f306 	lsr.w	r3, r2, r6
 800040a:	40f1      	lsrs	r1, r6
 800040c:	431f      	orrs	r7, r3
 800040e:	e9c5 7100 	strd	r7, r1, [r5]
 8000412:	2600      	movs	r6, #0
 8000414:	4631      	mov	r1, r6
 8000416:	e8bd 87f0 	ldmia.w	sp!, {r4, r5, r6, r7, r8, r9, sl, pc}
 800041a:	f1c2 0320 	rsb	r3, r2, #32
 800041e:	40d8      	lsrs	r0, r3
 8000420:	fa0c fc02 	lsl.w	ip, ip, r2
 8000424:	fa21 f303 	lsr.w	r3, r1, r3
 8000428:	4091      	lsls	r1, r2
 800042a:	4301      	orrs	r1, r0
 800042c:	ea4f 471c 	mov.w	r7, ip, lsr #16
 8000430:	fa1f fe8c 	uxth.w	lr, ip
 8000434:	fbb3 f0f7 	udiv	r0, r3, r7
 8000438:	fb07 3610 	mls	r6, r7, r0, r3
 800043c:	0c0b      	lsrs	r3, r1, #16
 800043e:	ea43 4306 	orr.w	r3, r3, r6, lsl #16
 8000442:	fb00 f60e 	mul.w	r6, r0, lr
 8000446:	429e      	cmp	r6, r3
 8000448:	fa04 f402 	lsl.w	r4, r4, r2
 800044c:	d908      	bls.n	8000460 <__udivmoddi4+0x260>
 800044e:	eb1c 0303 	adds.w	r3, ip, r3
 8000452:	f100 38ff 	add.w	r8, r0, #4294967295	; 0xffffffff
 8000456:	d22f      	bcs.n	80004b8 <__udivmoddi4+0x2b8>
 8000458:	429e      	cmp	r6, r3
 800045a:	d92d      	bls.n	80004b8 <__udivmoddi4+0x2b8>
 800045c:	3802      	subs	r0, #2
 800045e:	4463      	add	r3, ip
 8000460:	1b9b      	subs	r3, r3, r6
 8000462:	b289      	uxth	r1, r1
 8000464:	fbb3 f6f7 	udiv	r6, r3, r7
 8000468:	fb07 3316 	mls	r3, r7, r6, r3
 800046c:	ea41 4103 	orr.w	r1, r1, r3, lsl #16
 8000470:	fb06 f30e 	mul.w	r3, r6, lr
 8000474:	428b      	cmp	r3, r1
 8000476:	d908      	bls.n	800048a <__udivmoddi4+0x28a>
 8000478:	eb1c 0101 	adds.w	r1, ip, r1
 800047c:	f106 38ff 	add.w	r8, r6, #4294967295	; 0xffffffff
 8000480:	d216      	bcs.n	80004b0 <__udivmoddi4+0x2b0>
 8000482:	428b      	cmp	r3, r1
 8000484:	d914      	bls.n	80004b0 <__udivmoddi4+0x2b0>
 8000486:	3e02      	subs	r6, #2
 8000488:	4461      	add	r1, ip
 800048a:	1ac9      	subs	r1, r1, r3
 800048c:	ea46 4600 	orr.w	r6, r6, r0, lsl #16
 8000490:	e738      	b.n	8000304 <__udivmoddi4+0x104>
 8000492:	462e      	mov	r6, r5
 8000494:	4628      	mov	r0, r5
 8000496:	e705      	b.n	80002a4 <__udivmoddi4+0xa4>
 8000498:	4606      	mov	r6, r0
 800049a:	e6e3      	b.n	8000264 <__udivmoddi4+0x64>
 800049c:	4618      	mov	r0, r3
 800049e:	e6f8      	b.n	8000292 <__udivmoddi4+0x92>
 80004a0:	454b      	cmp	r3, r9
 80004a2:	d2a9      	bcs.n	80003f8 <__udivmoddi4+0x1f8>
 80004a4:	ebb9 0802 	subs.w	r8, r9, r2
 80004a8:	eb64 0e0c 	sbc.w	lr, r4, ip
 80004ac:	3801      	subs	r0, #1
 80004ae:	e7a3      	b.n	80003f8 <__udivmoddi4+0x1f8>
 80004b0:	4646      	mov	r6, r8
 80004b2:	e7ea      	b.n	800048a <__udivmoddi4+0x28a>
 80004b4:	4620      	mov	r0, r4
 80004b6:	e794      	b.n	80003e2 <__udivmoddi4+0x1e2>
 80004b8:	4640      	mov	r0, r8
 80004ba:	e7d1      	b.n	8000460 <__udivmoddi4+0x260>
 80004bc:	46d0      	mov	r8, sl
 80004be:	e77b      	b.n	80003b8 <__udivmoddi4+0x1b8>
 80004c0:	3b02      	subs	r3, #2
 80004c2:	4461      	add	r1, ip
 80004c4:	e732      	b.n	800032c <__udivmoddi4+0x12c>
 80004c6:	4630      	mov	r0, r6
 80004c8:	e709      	b.n	80002de <__udivmoddi4+0xde>
 80004ca:	4464      	add	r4, ip
 80004cc:	3802      	subs	r0, #2
 80004ce:	e742      	b.n	8000356 <__udivmoddi4+0x156>

080004d0 <__aeabi_idiv0>:
 80004d0:	4770      	bx	lr
 80004d2:	bf00      	nop

080004d4 <LTC4162_SetReg>:
 80004d4:	b5f0      	push	{r4, r5, r6, r7, lr}
 80004d6:	f3c0 2703 	ubfx	r7, r0, #8, #4
 80004da:	b087      	sub	sp, #28
 80004dc:	2f0f      	cmp	r7, #15
 80004de:	4d19      	ldr	r5, [pc, #100]	; (8000544 <LTC4162_SetReg+0x70>)
 80004e0:	f8ad 1016 	strh.w	r1, [sp, #22]
 80004e4:	4604      	mov	r4, r0
 80004e6:	b2c2      	uxtb	r2, r0
 80004e8:	d01d      	beq.n	8000526 <LTC4162_SetReg+0x52>
 80004ea:	2302      	movs	r3, #2
 80004ec:	2064      	movs	r0, #100	; 0x64
 80004ee:	4e16      	ldr	r6, [pc, #88]	; (8000548 <LTC4162_SetReg+0x74>)
 80004f0:	9600      	str	r6, [sp, #0]
 80004f2:	e9cd 3001 	strd	r3, r0, [sp, #4]
 80004f6:	21d0      	movs	r1, #208	; 0xd0
 80004f8:	6828      	ldr	r0, [r5, #0]
 80004fa:	9204      	str	r2, [sp, #16]
 80004fc:	2301      	movs	r3, #1
 80004fe:	f001 f9ff 	bl	8001900 <HAL_I2C_Mem_Read>
 8000502:	b9e0      	cbnz	r0, 800053e <LTC4162_SetReg+0x6a>
 8000504:	3701      	adds	r7, #1
 8000506:	2301      	movs	r3, #1
 8000508:	40bb      	lsls	r3, r7
 800050a:	f8bd 0016 	ldrh.w	r0, [sp, #22]
 800050e:	8831      	ldrh	r1, [r6, #0]
 8000510:	9a04      	ldr	r2, [sp, #16]
 8000512:	0b24      	lsrs	r4, r4, #12
 8000514:	3b01      	subs	r3, #1
 8000516:	40a3      	lsls	r3, r4
 8000518:	ea21 0303 	bic.w	r3, r1, r3
 800051c:	fa00 f404 	lsl.w	r4, r0, r4
 8000520:	431c      	orrs	r4, r3
 8000522:	f8ad 4016 	strh.w	r4, [sp, #22]
 8000526:	2302      	movs	r3, #2
 8000528:	2164      	movs	r1, #100	; 0x64
 800052a:	e9cd 3101 	strd	r3, r1, [sp, #4]
 800052e:	f10d 0316 	add.w	r3, sp, #22
 8000532:	9300      	str	r3, [sp, #0]
 8000534:	6828      	ldr	r0, [r5, #0]
 8000536:	2301      	movs	r3, #1
 8000538:	21d0      	movs	r1, #208	; 0xd0
 800053a:	f001 f907 	bl	800174c <HAL_I2C_Mem_Write>
 800053e:	b007      	add	sp, #28
 8000540:	bdf0      	pop	{r4, r5, r6, r7, pc}
 8000542:	bf00      	nop
 8000544:	20000094 	.word	0x20000094
 8000548:	20000098 	.word	0x20000098

0800054c <LTC4162_GetReg>:
 800054c:	b530      	push	{r4, r5, lr}
 800054e:	2302      	movs	r3, #2
 8000550:	b085      	sub	sp, #20
 8000552:	2264      	movs	r2, #100	; 0x64
 8000554:	e9cd 3201 	strd	r3, r2, [sp, #4]
 8000558:	4604      	mov	r4, r0
 800055a:	b2c2      	uxtb	r2, r0
 800055c:	480b      	ldr	r0, [pc, #44]	; (800058c <LTC4162_GetReg+0x40>)
 800055e:	9100      	str	r1, [sp, #0]
 8000560:	2301      	movs	r3, #1
 8000562:	6800      	ldr	r0, [r0, #0]
 8000564:	460d      	mov	r5, r1
 8000566:	21d0      	movs	r1, #208	; 0xd0
 8000568:	f001 f9ca 	bl	8001900 <HAL_I2C_Mem_Read>
 800056c:	f3c4 2303 	ubfx	r3, r4, #8, #4
 8000570:	2b0f      	cmp	r3, #15
 8000572:	d009      	beq.n	8000588 <LTC4162_GetReg+0x3c>
 8000574:	1c5a      	adds	r2, r3, #1
 8000576:	2301      	movs	r3, #1
 8000578:	4093      	lsls	r3, r2
 800057a:	0b24      	lsrs	r4, r4, #12
 800057c:	882a      	ldrh	r2, [r5, #0]
 800057e:	3b01      	subs	r3, #1
 8000580:	40a3      	lsls	r3, r4
 8000582:	4013      	ands	r3, r2
 8000584:	4123      	asrs	r3, r4
 8000586:	802b      	strh	r3, [r5, #0]
 8000588:	b005      	add	sp, #20
 800058a:	bd30      	pop	{r4, r5, pc}
 800058c:	20000094 	.word	0x20000094

08000590 <LTC4162_Init>:
 8000590:	4b18      	ldr	r3, [pc, #96]	; (80005f4 <LTC4162_Init+0x64>)
 8000592:	b570      	push	{r4, r5, r6, lr}
 8000594:	2101      	movs	r1, #1
 8000596:	6018      	str	r0, [r3, #0]
 8000598:	f242 0014 	movw	r0, #8212	; 0x2014
 800059c:	f7ff ff9a 	bl	80004d4 <LTC4162_SetReg>
 80005a0:	2101      	movs	r1, #1
 80005a2:	f241 0014 	movw	r0, #4116	; 0x1014
 80005a6:	f7ff ff95 	bl	80004d4 <LTC4162_SetReg>
 80005aa:	2101      	movs	r1, #1
 80005ac:	f243 0014 	movw	r0, #12308	; 0x3014
 80005b0:	f7ff ff90 	bl	80004d4 <LTC4162_SetReg>
 80005b4:	4910      	ldr	r1, [pc, #64]	; (80005f8 <LTC4162_Init+0x68>)
 80005b6:	4e10      	ldr	r6, [pc, #64]	; (80005f8 <LTC4162_Init+0x68>)
 80005b8:	4d10      	ldr	r5, [pc, #64]	; (80005fc <LTC4162_Init+0x6c>)
 80005ba:	f240 3043 	movw	r0, #835	; 0x343
 80005be:	f7ff ffc5 	bl	800054c <LTC4162_GetReg>
 80005c2:	2400      	movs	r4, #0
 80005c4:	8833      	ldrh	r3, [r6, #0]
 80005c6:	42a3      	cmp	r3, r4
 80005c8:	dc00      	bgt.n	80005cc <LTC4162_Init+0x3c>
 80005ca:	bd70      	pop	{r4, r5, r6, pc}
 80005cc:	2200      	movs	r2, #0
 80005ce:	2108      	movs	r1, #8
 80005d0:	4628      	mov	r0, r5
 80005d2:	f000 ff37 	bl	8001444 <HAL_GPIO_WritePin>
 80005d6:	f44f 70fa 	mov.w	r0, #500	; 0x1f4
 80005da:	f003 faa4 	bl	8003b26 <osDelay>
 80005de:	2201      	movs	r2, #1
 80005e0:	2108      	movs	r1, #8
 80005e2:	4628      	mov	r0, r5
 80005e4:	f000 ff2e 	bl	8001444 <HAL_GPIO_WritePin>
 80005e8:	f44f 70fa 	mov.w	r0, #500	; 0x1f4
 80005ec:	f003 fa9b 	bl	8003b26 <osDelay>
 80005f0:	3401      	adds	r4, #1
 80005f2:	e7e7      	b.n	80005c4 <LTC4162_Init+0x34>
 80005f4:	20000094 	.word	0x20000094
 80005f8:	20000090 	.word	0x20000090
 80005fc:	48000800 	.word	0x48000800

08000600 <bus_packet_EncodePacketize>:
 8000600:	e92d 43f8 	stmdb	sp!, {r3, r4, r5, r6, r7, r8, r9, lr}
 8000604:	e9dd 7408 	ldrd	r7, r4, [sp, #32]
 8000608:	f107 0804 	add.w	r8, r7, #4
 800060c:	f1b8 0f7f 	cmp.w	r8, #127	; 0x7f
 8000610:	460e      	mov	r6, r1
 8000612:	4681      	mov	r9, r0
 8000614:	4615      	mov	r5, r2
 8000616:	4619      	mov	r1, r3
 8000618:	d81c      	bhi.n	8000654 <bus_packet_EncodePacketize+0x54>
 800061a:	463a      	mov	r2, r7
 800061c:	1ca0      	adds	r0, r4, #2
 800061e:	f005 f87d 	bl	800571c <memcpy>
 8000622:	f006 017f 	and.w	r1, r6, #127	; 0x7f
 8000626:	ea41 16c9 	orr.w	r6, r1, r9, lsl #7
 800062a:	ea48 18c5 	orr.w	r8, r8, r5, lsl #7
 800062e:	7026      	strb	r6, [r4, #0]
 8000630:	f884 8001 	strb.w	r8, [r4, #1]
 8000634:	b15d      	cbz	r5, 800064e <bus_packet_EncodePacketize+0x4e>
 8000636:	1cbd      	adds	r5, r7, #2
 8000638:	462a      	mov	r2, r5
 800063a:	4621      	mov	r1, r4
 800063c:	4806      	ldr	r0, [pc, #24]	; (8000658 <bus_packet_EncodePacketize+0x58>)
 800063e:	f000 fdac 	bl	800119a <HAL_CRC_Calculate>
 8000642:	f3c0 2307 	ubfx	r3, r0, #8, #8
 8000646:	5563      	strb	r3, [r4, r5]
 8000648:	443c      	add	r4, r7
 800064a:	2500      	movs	r5, #0
 800064c:	70e0      	strb	r0, [r4, #3]
 800064e:	4628      	mov	r0, r5
 8000650:	e8bd 83f8 	ldmia.w	sp!, {r3, r4, r5, r6, r7, r8, r9, pc}
 8000654:	2501      	movs	r5, #1
 8000656:	e7fa      	b.n	800064e <bus_packet_EncodePacketize+0x4e>
 8000658:	2000012c 	.word	0x2000012c

0800065c <bus_packet_CRC16CCSDSConfig>:
 800065c:	b510      	push	{r4, lr}
 800065e:	4c10      	ldr	r4, [pc, #64]	; (80006a0 <bus_packet_CRC16CCSDSConfig+0x44>)
 8000660:	4620      	mov	r0, r4
 8000662:	f000 fd81 	bl	8001168 <HAL_CRC_DeInit>
 8000666:	b108      	cbz	r0, 800066c <bus_packet_CRC16CCSDSConfig+0x10>
 8000668:	2001      	movs	r0, #1
 800066a:	bd10      	pop	{r4, pc}
 800066c:	4b0d      	ldr	r3, [pc, #52]	; (80006a4 <bus_packet_CRC16CCSDSConfig+0x48>)
 800066e:	6023      	str	r3, [r4, #0]
 8000670:	f44f 7380 	mov.w	r3, #256	; 0x100
 8000674:	e9c4 0004 	strd	r0, r0, [r4, #16]
 8000678:	80a3      	strh	r3, [r4, #4]
 800067a:	61a0      	str	r0, [r4, #24]
 800067c:	2301      	movs	r3, #1
 800067e:	4620      	mov	r0, r4
 8000680:	6223      	str	r3, [r4, #32]
 8000682:	f000 fd37 	bl	80010f4 <HAL_CRC_Init>
 8000686:	2800      	cmp	r0, #0
 8000688:	d1ee      	bne.n	8000668 <bus_packet_CRC16CCSDSConfig+0xc>
 800068a:	2208      	movs	r2, #8
 800068c:	f241 0121 	movw	r1, #4129	; 0x1021
 8000690:	4620      	mov	r0, r4
 8000692:	f000 fda6 	bl	80011e2 <HAL_CRCEx_Polynomial_Set>
 8000696:	3800      	subs	r0, #0
 8000698:	bf18      	it	ne
 800069a:	2001      	movne	r0, #1
 800069c:	e7e5      	b.n	800066a <bus_packet_CRC16CCSDSConfig+0xe>
 800069e:	bf00      	nop
 80006a0:	2000012c 	.word	0x2000012c
 80006a4:	40023000 	.word	0x40023000

080006a8 <vApplicationIdleHook>:
 80006a8:	bf30      	wfi
 80006aa:	4770      	bx	lr

080006ac <prvMonitorMPPT>:
 80006ac:	b508      	push	{r3, lr}
 80006ae:	481d      	ldr	r0, [pc, #116]	; (8000724 <prvMonitorMPPT+0x78>)
 80006b0:	4c1d      	ldr	r4, [pc, #116]	; (8000728 <prvMonitorMPPT+0x7c>)
 80006b2:	4e1e      	ldr	r6, [pc, #120]	; (800072c <prvMonitorMPPT+0x80>)
 80006b4:	f7ff ff6c 	bl	8000590 <LTC4162_Init>
 80006b8:	1ca5      	adds	r5, r4, #2
 80006ba:	4630      	mov	r0, r6
 80006bc:	2104      	movs	r1, #4
 80006be:	f000 fec6 	bl	800144e <HAL_GPIO_TogglePin>
 80006c2:	4621      	mov	r1, r4
 80006c4:	f640 703b 	movw	r0, #3899	; 0xf3b
 80006c8:	f7ff ff40 	bl	800054c <LTC4162_GetReg>
 80006cc:	4629      	mov	r1, r5
 80006ce:	f640 703c 	movw	r0, #3900	; 0xf3c
 80006d2:	f7ff ff3b 	bl	800054c <LTC4162_GetReg>
 80006d6:	4916      	ldr	r1, [pc, #88]	; (8000730 <prvMonitorMPPT+0x84>)
 80006d8:	f640 703a 	movw	r0, #3898	; 0xf3a
 80006dc:	f7ff ff36 	bl	800054c <LTC4162_GetReg>
 80006e0:	4914      	ldr	r1, [pc, #80]	; (8000734 <prvMonitorMPPT+0x88>)
 80006e2:	f640 703d 	movw	r0, #3901	; 0xf3d
 80006e6:	f7ff ff31 	bl	800054c <LTC4162_GetReg>
 80006ea:	4913      	ldr	r1, [pc, #76]	; (8000738 <prvMonitorMPPT+0x8c>)
 80006ec:	f640 703e 	movw	r0, #3902	; 0xf3e
 80006f0:	f7ff ff2c 	bl	800054c <LTC4162_GetReg>
 80006f4:	4911      	ldr	r1, [pc, #68]	; (800073c <prvMonitorMPPT+0x90>)
 80006f6:	f640 703f 	movw	r0, #3903	; 0xf3f
 80006fa:	f7ff ff27 	bl	800054c <LTC4162_GetReg>
 80006fe:	4910      	ldr	r1, [pc, #64]	; (8000740 <prvMonitorMPPT+0x94>)
 8000700:	f44f 6074 	mov.w	r0, #3904	; 0xf40
 8000704:	f7ff ff22 	bl	800054c <LTC4162_GetReg>
 8000708:	490e      	ldr	r1, [pc, #56]	; (8000744 <prvMonitorMPPT+0x98>)
 800070a:	f640 7041 	movw	r0, #3905	; 0xf41
 800070e:	f7ff ff1d 	bl	800054c <LTC4162_GetReg>
 8000712:	490d      	ldr	r1, [pc, #52]	; (8000748 <prvMonitorMPPT+0x9c>)
 8000714:	f640 4034 	movw	r0, #3124	; 0xc34
 8000718:	f7ff ff18 	bl	800054c <LTC4162_GetReg>
 800071c:	2064      	movs	r0, #100	; 0x64
 800071e:	f003 fa02 	bl	8003b26 <osDelay>
 8000722:	e7ca      	b.n	80006ba <prvMonitorMPPT+0xe>
 8000724:	200001a4 	.word	0x200001a4
 8000728:	2000032c 	.word	0x2000032c
 800072c:	48000800 	.word	0x48000800
 8000730:	20000330 	.word	0x20000330
 8000734:	20000332 	.word	0x20000332
 8000738:	20000334 	.word	0x20000334
 800073c:	20000338 	.word	0x20000338
 8000740:	2000033a 	.word	0x2000033a
 8000744:	2000033c 	.word	0x2000033c
 8000748:	2000033e 	.word	0x2000033e

0800074c <prvPowerManagement>:
 800074c:	b508      	push	{r3, lr}
 800074e:	4c08      	ldr	r4, [pc, #32]	; (8000770 <prvPowerManagement+0x24>)
 8000750:	4620      	mov	r0, r4
 8000752:	2104      	movs	r1, #4
 8000754:	f000 fe7b 	bl	800144e <HAL_GPIO_TogglePin>
 8000758:	2201      	movs	r2, #1
 800075a:	f44f 7180 	mov.w	r1, #256	; 0x100
 800075e:	f04f 4090 	mov.w	r0, #1207959552	; 0x48000000
 8000762:	f000 fe6f 	bl	8001444 <HAL_GPIO_WritePin>
 8000766:	f44f 707a 	mov.w	r0, #1000	; 0x3e8
 800076a:	f003 f9dc 	bl	8003b26 <osDelay>
 800076e:	e7ef      	b.n	8000750 <prvPowerManagement+0x4>
 8000770:	48000800 	.word	0x48000800

08000774 <prvSendTelemetry>:
 8000774:	b507      	push	{r0, r1, r2, lr}
 8000776:	4c12      	ldr	r4, [pc, #72]	; (80007c0 <prvSendTelemetry+0x4c>)
 8000778:	4e12      	ldr	r6, [pc, #72]	; (80007c4 <prvSendTelemetry+0x50>)
 800077a:	f7ff ff6f 	bl	800065c <bus_packet_CRC16CCSDSConfig>
 800077e:	4b12      	ldr	r3, [pc, #72]	; (80007c8 <prvSendTelemetry+0x54>)
 8000780:	4625      	mov	r5, r4
 8000782:	681b      	ldr	r3, [r3, #0]
 8000784:	f845 3b04 	str.w	r3, [r5], #4
 8000788:	4630      	mov	r0, r6
 800078a:	2104      	movs	r1, #4
 800078c:	f000 fe5f 	bl	800144e <HAL_GPIO_TogglePin>
 8000790:	2314      	movs	r3, #20
 8000792:	9300      	str	r3, [sp, #0]
 8000794:	9501      	str	r5, [sp, #4]
 8000796:	4b0d      	ldr	r3, [pc, #52]	; (80007cc <prvSendTelemetry+0x58>)
 8000798:	2201      	movs	r2, #1
 800079a:	2140      	movs	r1, #64	; 0x40
 800079c:	2000      	movs	r0, #0
 800079e:	f7ff ff2f 	bl	8000600 <bus_packet_EncodePacketize>
 80007a2:	7962      	ldrb	r2, [r4, #5]
 80007a4:	480a      	ldr	r0, [pc, #40]	; (80007d0 <prvSendTelemetry+0x5c>)
 80007a6:	f002 027f 	and.w	r2, r2, #127	; 0x7f
 80007aa:	f44f 737a 	mov.w	r3, #1000	; 0x3e8
 80007ae:	3204      	adds	r2, #4
 80007b0:	4621      	mov	r1, r4
 80007b2:	f002 ffb7 	bl	8003724 <HAL_UART_Transmit>
 80007b6:	f241 3088 	movw	r0, #5000	; 0x1388
 80007ba:	f003 f9b4 	bl	8003b26 <osDelay>
 80007be:	e7e3      	b.n	8000788 <prvSendTelemetry+0x14>
 80007c0:	200000ac 	.word	0x200000ac
 80007c4:	48000800 	.word	0x48000800
 80007c8:	080058e4 	.word	0x080058e4
 80007cc:	2000032c 	.word	0x2000032c
 80007d0:	200002a8 	.word	0x200002a8

080007d4 <HAL_UARTEx_RxEventCallback>:
 80007d4:	4902      	ldr	r1, [pc, #8]	; (80007e0 <HAL_UARTEx_RxEventCallback+0xc>)
 80007d6:	4803      	ldr	r0, [pc, #12]	; (80007e4 <HAL_UARTEx_RxEventCallback+0x10>)
 80007d8:	2204      	movs	r2, #4
 80007da:	f003 b8c0 	b.w	800395e <HAL_UARTEx_ReceiveToIdle_IT>
 80007de:	bf00      	nop
 80007e0:	200000a8 	.word	0x200000a8
 80007e4:	200002a8 	.word	0x200002a8

080007e8 <HAL_UART_TxCpltCallback>:
 80007e8:	4b02      	ldr	r3, [pc, #8]	; (80007f4 <HAL_UART_TxCpltCallback+0xc>)
 80007ea:	2102      	movs	r1, #2
 80007ec:	6818      	ldr	r0, [r3, #0]
 80007ee:	f003 b960 	b.w	8003ab2 <osThreadFlagsSet>
 80007f2:	bf00      	nop
 80007f4:	200000a4 	.word	0x200000a4

080007f8 <HAL_TIM_PeriodElapsedCallback>:
 80007f8:	6802      	ldr	r2, [r0, #0]
 80007fa:	4b03      	ldr	r3, [pc, #12]	; (8000808 <HAL_TIM_PeriodElapsedCallback+0x10>)
 80007fc:	429a      	cmp	r2, r3
 80007fe:	d101      	bne.n	8000804 <HAL_TIM_PeriodElapsedCallback+0xc>
 8000800:	f000 bbb8 	b.w	8000f74 <HAL_IncTick>
 8000804:	4770      	bx	lr
 8000806:	bf00      	nop
 8000808:	40012c00 	.word	0x40012c00

0800080c <Error_Handler>:
 800080c:	b508      	push	{r3, lr}
 800080e:	b672      	cpsid	i
 8000810:	4c04      	ldr	r4, [pc, #16]	; (8000824 <Error_Handler+0x18>)
 8000812:	4620      	mov	r0, r4
 8000814:	2102      	movs	r1, #2
 8000816:	f000 fe1a 	bl	800144e <HAL_GPIO_TogglePin>
 800081a:	20fa      	movs	r0, #250	; 0xfa
 800081c:	f000 fbbc 	bl	8000f98 <HAL_Delay>
 8000820:	e7f7      	b.n	8000812 <Error_Handler+0x6>
 8000822:	bf00      	nop
 8000824:	48000800 	.word	0x48000800

08000828 <SystemClock_Config>:
 8000828:	b510      	push	{r4, lr}
 800082a:	b096      	sub	sp, #88	; 0x58
 800082c:	2244      	movs	r2, #68	; 0x44
 800082e:	2100      	movs	r1, #0
 8000830:	a805      	add	r0, sp, #20
 8000832:	f004 ff81 	bl	8005738 <memset>
 8000836:	2214      	movs	r2, #20
 8000838:	2100      	movs	r1, #0
 800083a:	4668      	mov	r0, sp
 800083c:	f004 ff7c 	bl	8005738 <memset>
 8000840:	f44f 7000 	mov.w	r0, #512	; 0x200
 8000844:	f001 f98e 	bl	8001b64 <HAL_PWREx_ControlVoltageScaling>
 8000848:	b108      	cbz	r0, 800084e <SystemClock_Config+0x26>
 800084a:	f7ff ffdf 	bl	800080c <Error_Handler>
 800084e:	2201      	movs	r2, #1
 8000850:	f44f 3380 	mov.w	r3, #65536	; 0x10000
 8000854:	e9cd 2305 	strd	r2, r3, [sp, #20]
 8000858:	2403      	movs	r4, #3
 800085a:	2302      	movs	r3, #2
 800085c:	2110      	movs	r1, #16
 800085e:	2207      	movs	r2, #7
 8000860:	a805      	add	r0, sp, #20
 8000862:	e9cd 340f 	strd	r3, r4, [sp, #60]	; 0x3c
 8000866:	e9cd 1212 	strd	r1, r2, [sp, #72]	; 0x48
 800086a:	e9cd 3314 	strd	r3, r3, [sp, #80]	; 0x50
 800086e:	9311      	str	r3, [sp, #68]	; 0x44
 8000870:	f001 fa3e 	bl	8001cf0 <HAL_RCC_OscConfig>
 8000874:	2800      	cmp	r0, #0
 8000876:	d1e8      	bne.n	800084a <SystemClock_Config+0x22>
 8000878:	e9cd 0002 	strd	r0, r0, [sp, #8]
 800087c:	230f      	movs	r3, #15
 800087e:	9004      	str	r0, [sp, #16]
 8000880:	2104      	movs	r1, #4
 8000882:	4668      	mov	r0, sp
 8000884:	e9cd 3400 	strd	r3, r4, [sp]
 8000888:	f001 fcd6 	bl	8002238 <HAL_RCC_ClockConfig>
 800088c:	2800      	cmp	r0, #0
 800088e:	d1dc      	bne.n	800084a <SystemClock_Config+0x22>
 8000890:	b016      	add	sp, #88	; 0x58
 8000892:	bd10      	pop	{r4, pc}

08000894 <main>:
 8000894:	b580      	push	{r7, lr}
 8000896:	b090      	sub	sp, #64	; 0x40
 8000898:	f000 fb5d 	bl	8000f56 <HAL_Init>
 800089c:	f7ff ffc4 	bl	8000828 <SystemClock_Config>
 80008a0:	2214      	movs	r2, #20
 80008a2:	2100      	movs	r1, #0
 80008a4:	a809      	add	r0, sp, #36	; 0x24
 80008a6:	f004 ff47 	bl	8005738 <memset>
 80008aa:	4b97      	ldr	r3, [pc, #604]	; (8000b08 <main+0x274>)
 80008ac:	4897      	ldr	r0, [pc, #604]	; (8000b0c <main+0x278>)
 80008ae:	6cda      	ldr	r2, [r3, #76]	; 0x4c
 80008b0:	4f97      	ldr	r7, [pc, #604]	; (8000b10 <main+0x27c>)
 80008b2:	f042 0204 	orr.w	r2, r2, #4
 80008b6:	64da      	str	r2, [r3, #76]	; 0x4c
 80008b8:	6cda      	ldr	r2, [r3, #76]	; 0x4c
 80008ba:	f002 0204 	and.w	r2, r2, #4
 80008be:	9202      	str	r2, [sp, #8]
 80008c0:	9a02      	ldr	r2, [sp, #8]
 80008c2:	6cda      	ldr	r2, [r3, #76]	; 0x4c
 80008c4:	f042 0280 	orr.w	r2, r2, #128	; 0x80
 80008c8:	64da      	str	r2, [r3, #76]	; 0x4c
 80008ca:	6cda      	ldr	r2, [r3, #76]	; 0x4c
 80008cc:	f002 0280 	and.w	r2, r2, #128	; 0x80
 80008d0:	9203      	str	r2, [sp, #12]
 80008d2:	9a03      	ldr	r2, [sp, #12]
 80008d4:	6cda      	ldr	r2, [r3, #76]	; 0x4c
 80008d6:	f042 0201 	orr.w	r2, r2, #1
 80008da:	64da      	str	r2, [r3, #76]	; 0x4c
 80008dc:	6cda      	ldr	r2, [r3, #76]	; 0x4c
 80008de:	f002 0201 	and.w	r2, r2, #1
 80008e2:	9204      	str	r2, [sp, #16]
 80008e4:	9a04      	ldr	r2, [sp, #16]
 80008e6:	6cda      	ldr	r2, [r3, #76]	; 0x4c
 80008e8:	f042 0202 	orr.w	r2, r2, #2
 80008ec:	64da      	str	r2, [r3, #76]	; 0x4c
 80008ee:	6cdb      	ldr	r3, [r3, #76]	; 0x4c
 80008f0:	f003 0302 	and.w	r3, r3, #2
 80008f4:	9305      	str	r3, [sp, #20]
 80008f6:	2201      	movs	r2, #1
 80008f8:	210e      	movs	r1, #14
 80008fa:	9b05      	ldr	r3, [sp, #20]
 80008fc:	f000 fda2 	bl	8001444 <HAL_GPIO_WritePin>
 8000900:	4882      	ldr	r0, [pc, #520]	; (8000b0c <main+0x278>)
 8000902:	2200      	movs	r2, #0
 8000904:	f44f 7100 	mov.w	r1, #512	; 0x200
 8000908:	f000 fd9c 	bl	8001444 <HAL_GPIO_WritePin>
 800090c:	2200      	movs	r2, #0
 800090e:	f44f 7180 	mov.w	r1, #256	; 0x100
 8000912:	f04f 4090 	mov.w	r0, #1207959552	; 0x48000000
 8000916:	f000 fd95 	bl	8001444 <HAL_GPIO_WritePin>
 800091a:	2500      	movs	r5, #0
 800091c:	f44f 43c0 	mov.w	r3, #24576	; 0x6000
 8000920:	f44f 1488 	mov.w	r4, #1114112	; 0x110000
 8000924:	4879      	ldr	r0, [pc, #484]	; (8000b0c <main+0x278>)
 8000926:	950b      	str	r5, [sp, #44]	; 0x2c
 8000928:	a909      	add	r1, sp, #36	; 0x24
 800092a:	e9cd 3409 	strd	r3, r4, [sp, #36]	; 0x24
 800092e:	2601      	movs	r6, #1
 8000930:	f000 fcc4 	bl	80012bc <HAL_GPIO_Init>
 8000934:	f240 230e 	movw	r3, #526	; 0x20e
 8000938:	4874      	ldr	r0, [pc, #464]	; (8000b0c <main+0x278>)
 800093a:	a909      	add	r1, sp, #36	; 0x24
 800093c:	e9cd 3609 	strd	r3, r6, [sp, #36]	; 0x24
 8000940:	e9cd 550b 	strd	r5, r5, [sp, #44]	; 0x2c
 8000944:	f000 fcba 	bl	80012bc <HAL_GPIO_Init>
 8000948:	f44f 4300 	mov.w	r3, #32768	; 0x8000
 800094c:	4871      	ldr	r0, [pc, #452]	; (8000b14 <main+0x280>)
 800094e:	950b      	str	r5, [sp, #44]	; 0x2c
 8000950:	a909      	add	r1, sp, #36	; 0x24
 8000952:	e9cd 3409 	strd	r3, r4, [sp, #36]	; 0x24
 8000956:	f000 fcb1 	bl	80012bc <HAL_GPIO_Init>
 800095a:	4c6f      	ldr	r4, [pc, #444]	; (8000b18 <main+0x284>)
 800095c:	f44f 7380 	mov.w	r3, #256	; 0x100
 8000960:	a909      	add	r1, sp, #36	; 0x24
 8000962:	f04f 4090 	mov.w	r0, #1207959552	; 0x48000000
 8000966:	e9cd 3609 	strd	r3, r6, [sp, #36]	; 0x24
 800096a:	e9cd 550b 	strd	r5, r5, [sp, #44]	; 0x2c
 800096e:	f000 fca5 	bl	80012bc <HAL_GPIO_Init>
 8000972:	4b6a      	ldr	r3, [pc, #424]	; (8000b1c <main+0x288>)
 8000974:	6225      	str	r5, [r4, #32]
 8000976:	4620      	mov	r0, r4
 8000978:	e9c4 3700 	strd	r3, r7, [r4]
 800097c:	e9c4 5602 	strd	r5, r6, [r4, #8]
 8000980:	e9c4 5504 	strd	r5, r5, [r4, #16]
 8000984:	e9c4 5506 	strd	r5, r5, [r4, #24]
 8000988:	f000 fe8f 	bl	80016aa <HAL_I2C_Init>
 800098c:	4601      	mov	r1, r0
 800098e:	b108      	cbz	r0, 8000994 <main+0x100>
 8000990:	f7ff ff3c 	bl	800080c <Error_Handler>
 8000994:	4620      	mov	r0, r4
 8000996:	f001 f891 	bl	8001abc <HAL_I2CEx_ConfigAnalogFilter>
 800099a:	4601      	mov	r1, r0
 800099c:	2800      	cmp	r0, #0
 800099e:	d1f7      	bne.n	8000990 <main+0xfc>
 80009a0:	4620      	mov	r0, r4
 80009a2:	f001 f8b1 	bl	8001b08 <HAL_I2CEx_ConfigDigitalFilter>
 80009a6:	2800      	cmp	r0, #0
 80009a8:	d1f2      	bne.n	8000990 <main+0xfc>
 80009aa:	4c5d      	ldr	r4, [pc, #372]	; (8000b20 <main+0x28c>)
 80009ac:	4b5d      	ldr	r3, [pc, #372]	; (8000b24 <main+0x290>)
 80009ae:	6220      	str	r0, [r4, #32]
 80009b0:	e9c4 0602 	strd	r0, r6, [r4, #8]
 80009b4:	e9c4 0004 	strd	r0, r0, [r4, #16]
 80009b8:	e9c4 0006 	strd	r0, r0, [r4, #24]
 80009bc:	4620      	mov	r0, r4
 80009be:	e9c4 3700 	strd	r3, r7, [r4]
 80009c2:	f000 fe72 	bl	80016aa <HAL_I2C_Init>
 80009c6:	4601      	mov	r1, r0
 80009c8:	2800      	cmp	r0, #0
 80009ca:	d1e1      	bne.n	8000990 <main+0xfc>
 80009cc:	4620      	mov	r0, r4
 80009ce:	f001 f875 	bl	8001abc <HAL_I2CEx_ConfigAnalogFilter>
 80009d2:	4601      	mov	r1, r0
 80009d4:	2800      	cmp	r0, #0
 80009d6:	d1db      	bne.n	8000990 <main+0xfc>
 80009d8:	4620      	mov	r0, r4
 80009da:	f001 f895 	bl	8001b08 <HAL_I2CEx_ConfigDigitalFilter>
 80009de:	4604      	mov	r4, r0
 80009e0:	2800      	cmp	r0, #0
 80009e2:	d1d5      	bne.n	8000990 <main+0xfc>
 80009e4:	4d50      	ldr	r5, [pc, #320]	; (8000b28 <main+0x294>)
 80009e6:	9008      	str	r0, [sp, #32]
 80009e8:	e9cd 0006 	strd	r0, r0, [sp, #24]
 80009ec:	4601      	mov	r1, r0
 80009ee:	221c      	movs	r2, #28
 80009f0:	a809      	add	r0, sp, #36	; 0x24
 80009f2:	f004 fea1 	bl	8005738 <memset>
 80009f6:	f04f 4380 	mov.w	r3, #1073741824	; 0x40000000
 80009fa:	e9c5 3400 	strd	r3, r4, [r5]
 80009fe:	4628      	mov	r0, r5
 8000a00:	f04f 33ff 	mov.w	r3, #4294967295	; 0xffffffff
 8000a04:	e9c5 3403 	strd	r3, r4, [r5, #12]
 8000a08:	60ac      	str	r4, [r5, #8]
 8000a0a:	61ac      	str	r4, [r5, #24]
 8000a0c:	f002 f990 	bl	8002d30 <HAL_TIM_PWM_Init>
 8000a10:	2800      	cmp	r0, #0
 8000a12:	d1bd      	bne.n	8000990 <main+0xfc>
 8000a14:	9006      	str	r0, [sp, #24]
 8000a16:	9008      	str	r0, [sp, #32]
 8000a18:	a906      	add	r1, sp, #24
 8000a1a:	4628      	mov	r0, r5
 8000a1c:	f002 fa72 	bl	8002f04 <HAL_TIMEx_MasterConfigSynchronization>
 8000a20:	2800      	cmp	r0, #0
 8000a22:	d1b5      	bne.n	8000990 <main+0xfc>
 8000a24:	2360      	movs	r3, #96	; 0x60
 8000a26:	e9cd 3009 	strd	r3, r0, [sp, #36]	; 0x24
 8000a2a:	900b      	str	r0, [sp, #44]	; 0x2c
 8000a2c:	900d      	str	r0, [sp, #52]	; 0x34
 8000a2e:	2208      	movs	r2, #8
 8000a30:	a909      	add	r1, sp, #36	; 0x24
 8000a32:	4628      	mov	r0, r5
 8000a34:	f002 f9e4 	bl	8002e00 <HAL_TIM_PWM_ConfigChannel>
 8000a38:	2800      	cmp	r0, #0
 8000a3a:	d1a9      	bne.n	8000990 <main+0xfc>
 8000a3c:	220c      	movs	r2, #12
 8000a3e:	a909      	add	r1, sp, #36	; 0x24
 8000a40:	4628      	mov	r0, r5
 8000a42:	f002 f9dd 	bl	8002e00 <HAL_TIM_PWM_ConfigChannel>
 8000a46:	2800      	cmp	r0, #0
 8000a48:	d1a2      	bne.n	8000990 <main+0xfc>
 8000a4a:	4628      	mov	r0, r5
 8000a4c:	f000 f984 	bl	8000d58 <HAL_TIM_MspPostInit>
 8000a50:	4c36      	ldr	r4, [pc, #216]	; (8000b2c <main+0x298>)
 8000a52:	4837      	ldr	r0, [pc, #220]	; (8000b30 <main+0x29c>)
 8000a54:	f44f 7382 	mov.w	r3, #260	; 0x104
 8000a58:	e9c0 4300 	strd	r4, r3, [r0]
 8000a5c:	f44f 7240 	mov.w	r2, #768	; 0x300
 8000a60:	2300      	movs	r3, #0
 8000a62:	e9c0 3202 	strd	r3, r2, [r0, #8]
 8000a66:	f44f 7200 	mov.w	r2, #512	; 0x200
 8000a6a:	e9c0 2306 	strd	r2, r3, [r0, #24]
 8000a6e:	2207      	movs	r2, #7
 8000a70:	e9c0 3304 	strd	r3, r3, [r0, #16]
 8000a74:	e9c0 3308 	strd	r3, r3, [r0, #32]
 8000a78:	e9c0 230b 	strd	r2, r3, [r0, #44]	; 0x2c
 8000a7c:	6283      	str	r3, [r0, #40]	; 0x28
 8000a7e:	2308      	movs	r3, #8
 8000a80:	6343      	str	r3, [r0, #52]	; 0x34
 8000a82:	f001 fea9 	bl	80027d8 <HAL_SPI_Init>
 8000a86:	4603      	mov	r3, r0
 8000a88:	2800      	cmp	r0, #0
 8000a8a:	d181      	bne.n	8000990 <main+0xfc>
 8000a8c:	4829      	ldr	r0, [pc, #164]	; (8000b34 <main+0x2a0>)
 8000a8e:	492a      	ldr	r1, [pc, #168]	; (8000b38 <main+0x2a4>)
 8000a90:	6103      	str	r3, [r0, #16]
 8000a92:	f44f 22e1 	mov.w	r2, #460800	; 0x70800
 8000a96:	e9c0 1200 	strd	r1, r2, [r0]
 8000a9a:	220c      	movs	r2, #12
 8000a9c:	e9c0 3302 	strd	r3, r3, [r0, #8]
 8000aa0:	e9c0 2305 	strd	r2, r3, [r0, #20]
 8000aa4:	e9c0 3307 	strd	r3, r3, [r0, #28]
 8000aa8:	6243      	str	r3, [r0, #36]	; 0x24
 8000aaa:	f002 fec8 	bl	800383e <HAL_UART_Init>
 8000aae:	4603      	mov	r3, r0
 8000ab0:	2800      	cmp	r0, #0
 8000ab2:	f47f af6d 	bne.w	8000990 <main+0xfc>
 8000ab6:	4821      	ldr	r0, [pc, #132]	; (8000b3c <main+0x2a8>)
 8000ab8:	4a21      	ldr	r2, [pc, #132]	; (8000b40 <main+0x2ac>)
 8000aba:	8083      	strh	r3, [r0, #4]
 8000abc:	e9c0 3305 	strd	r3, r3, [r0, #20]
 8000ac0:	2301      	movs	r3, #1
 8000ac2:	6002      	str	r2, [r0, #0]
 8000ac4:	6203      	str	r3, [r0, #32]
 8000ac6:	f000 fb15 	bl	80010f4 <HAL_CRC_Init>
 8000aca:	9001      	str	r0, [sp, #4]
 8000acc:	2800      	cmp	r0, #0
 8000ace:	f47f af5f 	bne.w	8000990 <main+0xfc>
 8000ad2:	f002 ff79 	bl	80039c8 <osKernelInitialize>
 8000ad6:	4a1b      	ldr	r2, [pc, #108]	; (8000b44 <main+0x2b0>)
 8000ad8:	9901      	ldr	r1, [sp, #4]
 8000ada:	481b      	ldr	r0, [pc, #108]	; (8000b48 <main+0x2b4>)
 8000adc:	f002 ffa0 	bl	8003a20 <osThreadNew>
 8000ae0:	4b1a      	ldr	r3, [pc, #104]	; (8000b4c <main+0x2b8>)
 8000ae2:	4a1b      	ldr	r2, [pc, #108]	; (8000b50 <main+0x2bc>)
 8000ae4:	6018      	str	r0, [r3, #0]
 8000ae6:	9901      	ldr	r1, [sp, #4]
 8000ae8:	481a      	ldr	r0, [pc, #104]	; (8000b54 <main+0x2c0>)
 8000aea:	f002 ff99 	bl	8003a20 <osThreadNew>
 8000aee:	4b1a      	ldr	r3, [pc, #104]	; (8000b58 <main+0x2c4>)
 8000af0:	4a1a      	ldr	r2, [pc, #104]	; (8000b5c <main+0x2c8>)
 8000af2:	6018      	str	r0, [r3, #0]
 8000af4:	9901      	ldr	r1, [sp, #4]
 8000af6:	481a      	ldr	r0, [pc, #104]	; (8000b60 <main+0x2cc>)
 8000af8:	f002 ff92 	bl	8003a20 <osThreadNew>
 8000afc:	4b19      	ldr	r3, [pc, #100]	; (8000b64 <main+0x2d0>)
 8000afe:	6018      	str	r0, [r3, #0]
 8000b00:	f002 ff74 	bl	80039ec <osKernelStart>
 8000b04:	e7fe      	b.n	8000b04 <main+0x270>
 8000b06:	bf00      	nop
 8000b08:	40021000 	.word	0x40021000
 8000b0c:	48000800 	.word	0x48000800
 8000b10:	10909cec 	.word	0x10909cec
 8000b14:	48000400 	.word	0x48000400
 8000b18:	20000150 	.word	0x20000150
 8000b1c:	40005400 	.word	0x40005400
 8000b20:	200001a4 	.word	0x200001a4
 8000b24:	40005800 	.word	0x40005800
 8000b28:	2000025c 	.word	0x2000025c
 8000b2c:	40013000 	.word	0x40013000
 8000b30:	200001f8 	.word	0x200001f8
 8000b34:	200002a8 	.word	0x200002a8
 8000b38:	40004800 	.word	0x40004800
 8000b3c:	2000012c 	.word	0x2000012c
 8000b40:	40023000 	.word	0x40023000
 8000b44:	08005908 	.word	0x08005908
 8000b48:	080006ad 	.word	0x080006ad
 8000b4c:	2000009c 	.word	0x2000009c
 8000b50:	08005950 	.word	0x08005950
 8000b54:	08000775 	.word	0x08000775
 8000b58:	200000a4 	.word	0x200000a4
 8000b5c:	0800592c 	.word	0x0800592c
 8000b60:	0800074d 	.word	0x0800074d
 8000b64:	200000a0 	.word	0x200000a0

08000b68 <HAL_MspInit>:
 8000b68:	4b0d      	ldr	r3, [pc, #52]	; (8000ba0 <HAL_MspInit+0x38>)
 8000b6a:	6e1a      	ldr	r2, [r3, #96]	; 0x60
 8000b6c:	f042 0201 	orr.w	r2, r2, #1
 8000b70:	661a      	str	r2, [r3, #96]	; 0x60
 8000b72:	6e1a      	ldr	r2, [r3, #96]	; 0x60
 8000b74:	b082      	sub	sp, #8
 8000b76:	f002 0201 	and.w	r2, r2, #1
 8000b7a:	9200      	str	r2, [sp, #0]
 8000b7c:	9a00      	ldr	r2, [sp, #0]
 8000b7e:	6d9a      	ldr	r2, [r3, #88]	; 0x58
 8000b80:	f042 5280 	orr.w	r2, r2, #268435456	; 0x10000000
 8000b84:	659a      	str	r2, [r3, #88]	; 0x58
 8000b86:	6d9b      	ldr	r3, [r3, #88]	; 0x58
 8000b88:	f003 5380 	and.w	r3, r3, #268435456	; 0x10000000
 8000b8c:	9301      	str	r3, [sp, #4]
 8000b8e:	9b01      	ldr	r3, [sp, #4]
 8000b90:	2200      	movs	r2, #0
 8000b92:	210f      	movs	r1, #15
 8000b94:	f06f 0001 	mvn.w	r0, #1
 8000b98:	b002      	add	sp, #8
 8000b9a:	f000 ba23 	b.w	8000fe4 <HAL_NVIC_SetPriority>
 8000b9e:	bf00      	nop
 8000ba0:	40021000 	.word	0x40021000

08000ba4 <HAL_CRC_MspInit>:
 8000ba4:	6802      	ldr	r2, [r0, #0]
 8000ba6:	4b08      	ldr	r3, [pc, #32]	; (8000bc8 <HAL_CRC_MspInit+0x24>)
 8000ba8:	429a      	cmp	r2, r3
 8000baa:	b082      	sub	sp, #8
 8000bac:	d10a      	bne.n	8000bc4 <HAL_CRC_MspInit+0x20>
 8000bae:	f5a3 5300 	sub.w	r3, r3, #8192	; 0x2000
 8000bb2:	6c9a      	ldr	r2, [r3, #72]	; 0x48
 8000bb4:	f442 5280 	orr.w	r2, r2, #4096	; 0x1000
 8000bb8:	649a      	str	r2, [r3, #72]	; 0x48
 8000bba:	6c9b      	ldr	r3, [r3, #72]	; 0x48
 8000bbc:	f403 5380 	and.w	r3, r3, #4096	; 0x1000
 8000bc0:	9301      	str	r3, [sp, #4]
 8000bc2:	9b01      	ldr	r3, [sp, #4]
 8000bc4:	b002      	add	sp, #8
 8000bc6:	4770      	bx	lr
 8000bc8:	40023000 	.word	0x40023000

08000bcc <HAL_CRC_MspDeInit>:
 8000bcc:	6802      	ldr	r2, [r0, #0]
 8000bce:	4b04      	ldr	r3, [pc, #16]	; (8000be0 <HAL_CRC_MspDeInit+0x14>)
 8000bd0:	429a      	cmp	r2, r3
 8000bd2:	bf01      	itttt	eq
 8000bd4:	4a03      	ldreq	r2, [pc, #12]	; (8000be4 <HAL_CRC_MspDeInit+0x18>)
 8000bd6:	6c93      	ldreq	r3, [r2, #72]	; 0x48
 8000bd8:	f423 5380 	biceq.w	r3, r3, #4096	; 0x1000
 8000bdc:	6493      	streq	r3, [r2, #72]	; 0x48
 8000bde:	4770      	bx	lr
 8000be0:	40023000 	.word	0x40023000
 8000be4:	40021000 	.word	0x40021000

08000be8 <HAL_I2C_MspInit>:
 8000be8:	b510      	push	{r4, lr}
 8000bea:	b0a0      	sub	sp, #128	; 0x80
 8000bec:	4604      	mov	r4, r0
 8000bee:	2214      	movs	r2, #20
 8000bf0:	2100      	movs	r1, #0
 8000bf2:	a804      	add	r0, sp, #16
 8000bf4:	f004 fda0 	bl	8005738 <memset>
 8000bf8:	225c      	movs	r2, #92	; 0x5c
 8000bfa:	2100      	movs	r1, #0
 8000bfc:	a809      	add	r0, sp, #36	; 0x24
 8000bfe:	f004 fd9b 	bl	8005738 <memset>
 8000c02:	6823      	ldr	r3, [r4, #0]
 8000c04:	4a2e      	ldr	r2, [pc, #184]	; (8000cc0 <HAL_I2C_MspInit+0xd8>)
 8000c06:	4293      	cmp	r3, r2
 8000c08:	d12c      	bne.n	8000c64 <HAL_I2C_MspInit+0x7c>
 8000c0a:	2340      	movs	r3, #64	; 0x40
 8000c0c:	a809      	add	r0, sp, #36	; 0x24
 8000c0e:	9309      	str	r3, [sp, #36]	; 0x24
 8000c10:	f001 fc88 	bl	8002524 <HAL_RCCEx_PeriphCLKConfig>
 8000c14:	b108      	cbz	r0, 8000c1a <HAL_I2C_MspInit+0x32>
 8000c16:	f7ff fdf9 	bl	800080c <Error_Handler>
 8000c1a:	4c2a      	ldr	r4, [pc, #168]	; (8000cc4 <HAL_I2C_MspInit+0xdc>)
 8000c1c:	6ce3      	ldr	r3, [r4, #76]	; 0x4c
 8000c1e:	f043 0302 	orr.w	r3, r3, #2
 8000c22:	64e3      	str	r3, [r4, #76]	; 0x4c
 8000c24:	6ce3      	ldr	r3, [r4, #76]	; 0x4c
 8000c26:	f003 0302 	and.w	r3, r3, #2
 8000c2a:	9300      	str	r3, [sp, #0]
 8000c2c:	9b00      	ldr	r3, [sp, #0]
 8000c2e:	f44f 7040 	mov.w	r0, #768	; 0x300
 8000c32:	2312      	movs	r3, #18
 8000c34:	e9cd 0304 	strd	r0, r3, [sp, #16]
 8000c38:	f04f 0c00 	mov.w	ip, #0
 8000c3c:	2303      	movs	r3, #3
 8000c3e:	e9cd c306 	strd	ip, r3, [sp, #24]
 8000c42:	4821      	ldr	r0, [pc, #132]	; (8000cc8 <HAL_I2C_MspInit+0xe0>)
 8000c44:	2304      	movs	r3, #4
 8000c46:	a904      	add	r1, sp, #16
 8000c48:	9308      	str	r3, [sp, #32]
 8000c4a:	f000 fb37 	bl	80012bc <HAL_GPIO_Init>
 8000c4e:	6da3      	ldr	r3, [r4, #88]	; 0x58
 8000c50:	f443 1300 	orr.w	r3, r3, #2097152	; 0x200000
 8000c54:	65a3      	str	r3, [r4, #88]	; 0x58
 8000c56:	6da3      	ldr	r3, [r4, #88]	; 0x58
 8000c58:	f403 1300 	and.w	r3, r3, #2097152	; 0x200000
 8000c5c:	9301      	str	r3, [sp, #4]
 8000c5e:	9b01      	ldr	r3, [sp, #4]
 8000c60:	b020      	add	sp, #128	; 0x80
 8000c62:	bd10      	pop	{r4, pc}
 8000c64:	4a19      	ldr	r2, [pc, #100]	; (8000ccc <HAL_I2C_MspInit+0xe4>)
 8000c66:	4293      	cmp	r3, r2
 8000c68:	d1fa      	bne.n	8000c60 <HAL_I2C_MspInit+0x78>
 8000c6a:	2380      	movs	r3, #128	; 0x80
 8000c6c:	a809      	add	r0, sp, #36	; 0x24
 8000c6e:	9309      	str	r3, [sp, #36]	; 0x24
 8000c70:	f001 fc58 	bl	8002524 <HAL_RCCEx_PeriphCLKConfig>
 8000c74:	b108      	cbz	r0, 8000c7a <HAL_I2C_MspInit+0x92>
 8000c76:	f7ff fdc9 	bl	800080c <Error_Handler>
 8000c7a:	4c12      	ldr	r4, [pc, #72]	; (8000cc4 <HAL_I2C_MspInit+0xdc>)
 8000c7c:	4812      	ldr	r0, [pc, #72]	; (8000cc8 <HAL_I2C_MspInit+0xe0>)
 8000c7e:	6ce3      	ldr	r3, [r4, #76]	; 0x4c
 8000c80:	f043 0302 	orr.w	r3, r3, #2
 8000c84:	64e3      	str	r3, [r4, #76]	; 0x4c
 8000c86:	6ce3      	ldr	r3, [r4, #76]	; 0x4c
 8000c88:	f003 0302 	and.w	r3, r3, #2
 8000c8c:	9302      	str	r3, [sp, #8]
 8000c8e:	9b02      	ldr	r3, [sp, #8]
 8000c90:	f44f 42c0 	mov.w	r2, #24576	; 0x6000
 8000c94:	2312      	movs	r3, #18
 8000c96:	e9cd 2304 	strd	r2, r3, [sp, #16]
 8000c9a:	2100      	movs	r1, #0
 8000c9c:	2303      	movs	r3, #3
 8000c9e:	e9cd 1306 	strd	r1, r3, [sp, #24]
 8000ca2:	2304      	movs	r3, #4
 8000ca4:	a904      	add	r1, sp, #16
 8000ca6:	9308      	str	r3, [sp, #32]
 8000ca8:	f000 fb08 	bl	80012bc <HAL_GPIO_Init>
 8000cac:	6da3      	ldr	r3, [r4, #88]	; 0x58
 8000cae:	f443 0380 	orr.w	r3, r3, #4194304	; 0x400000
 8000cb2:	65a3      	str	r3, [r4, #88]	; 0x58
 8000cb4:	6da3      	ldr	r3, [r4, #88]	; 0x58
 8000cb6:	f403 0380 	and.w	r3, r3, #4194304	; 0x400000
 8000cba:	9303      	str	r3, [sp, #12]
 8000cbc:	9b03      	ldr	r3, [sp, #12]
 8000cbe:	e7cf      	b.n	8000c60 <HAL_I2C_MspInit+0x78>
 8000cc0:	40005400 	.word	0x40005400
 8000cc4:	40021000 	.word	0x40021000
 8000cc8:	48000400 	.word	0x48000400
 8000ccc:	40005800 	.word	0x40005800

08000cd0 <HAL_SPI_MspInit>:
 8000cd0:	b510      	push	{r4, lr}
 8000cd2:	4604      	mov	r4, r0
 8000cd4:	b088      	sub	sp, #32
 8000cd6:	2214      	movs	r2, #20
 8000cd8:	2100      	movs	r1, #0
 8000cda:	a803      	add	r0, sp, #12
 8000cdc:	f004 fd2c 	bl	8005738 <memset>
 8000ce0:	6822      	ldr	r2, [r4, #0]
 8000ce2:	4b13      	ldr	r3, [pc, #76]	; (8000d30 <HAL_SPI_MspInit+0x60>)
 8000ce4:	429a      	cmp	r2, r3
 8000ce6:	d121      	bne.n	8000d2c <HAL_SPI_MspInit+0x5c>
 8000ce8:	f503 4360 	add.w	r3, r3, #57344	; 0xe000
 8000cec:	2103      	movs	r1, #3
 8000cee:	6e1a      	ldr	r2, [r3, #96]	; 0x60
 8000cf0:	f442 5280 	orr.w	r2, r2, #4096	; 0x1000
 8000cf4:	661a      	str	r2, [r3, #96]	; 0x60
 8000cf6:	6e1a      	ldr	r2, [r3, #96]	; 0x60
 8000cf8:	f402 5280 	and.w	r2, r2, #4096	; 0x1000
 8000cfc:	9201      	str	r2, [sp, #4]
 8000cfe:	9a01      	ldr	r2, [sp, #4]
 8000d00:	6cda      	ldr	r2, [r3, #76]	; 0x4c
 8000d02:	f042 0201 	orr.w	r2, r2, #1
 8000d06:	64da      	str	r2, [r3, #76]	; 0x4c
 8000d08:	6cdb      	ldr	r3, [r3, #76]	; 0x4c
 8000d0a:	f003 0301 	and.w	r3, r3, #1
 8000d0e:	9302      	str	r3, [sp, #8]
 8000d10:	9b02      	ldr	r3, [sp, #8]
 8000d12:	f641 0202 	movw	r2, #6146	; 0x1802
 8000d16:	2302      	movs	r3, #2
 8000d18:	e9cd 2303 	strd	r2, r3, [sp, #12]
 8000d1c:	2305      	movs	r3, #5
 8000d1e:	e9cd 1306 	strd	r1, r3, [sp, #24]
 8000d22:	f04f 4090 	mov.w	r0, #1207959552	; 0x48000000
 8000d26:	a903      	add	r1, sp, #12
 8000d28:	f000 fac8 	bl	80012bc <HAL_GPIO_Init>
 8000d2c:	b008      	add	sp, #32
 8000d2e:	bd10      	pop	{r4, pc}
 8000d30:	40013000 	.word	0x40013000

08000d34 <HAL_TIM_PWM_MspInit>:
 8000d34:	6803      	ldr	r3, [r0, #0]
 8000d36:	f1b3 4f80 	cmp.w	r3, #1073741824	; 0x40000000
 8000d3a:	b082      	sub	sp, #8
 8000d3c:	d10a      	bne.n	8000d54 <HAL_TIM_PWM_MspInit+0x20>
 8000d3e:	f503 3304 	add.w	r3, r3, #135168	; 0x21000
 8000d42:	6d9a      	ldr	r2, [r3, #88]	; 0x58
 8000d44:	f042 0201 	orr.w	r2, r2, #1
 8000d48:	659a      	str	r2, [r3, #88]	; 0x58
 8000d4a:	6d9b      	ldr	r3, [r3, #88]	; 0x58
 8000d4c:	f003 0301 	and.w	r3, r3, #1
 8000d50:	9301      	str	r3, [sp, #4]
 8000d52:	9b01      	ldr	r3, [sp, #4]
 8000d54:	b002      	add	sp, #8
 8000d56:	4770      	bx	lr

08000d58 <HAL_TIM_MspPostInit>:
 8000d58:	b510      	push	{r4, lr}
 8000d5a:	4604      	mov	r4, r0
 8000d5c:	b086      	sub	sp, #24
 8000d5e:	2214      	movs	r2, #20
 8000d60:	2100      	movs	r1, #0
 8000d62:	a801      	add	r0, sp, #4
 8000d64:	f004 fce8 	bl	8005738 <memset>
 8000d68:	6823      	ldr	r3, [r4, #0]
 8000d6a:	f1b3 4f80 	cmp.w	r3, #1073741824	; 0x40000000
 8000d6e:	d115      	bne.n	8000d9c <HAL_TIM_MspPostInit+0x44>
 8000d70:	f503 3304 	add.w	r3, r3, #135168	; 0x21000
 8000d74:	480a      	ldr	r0, [pc, #40]	; (8000da0 <HAL_TIM_MspPostInit+0x48>)
 8000d76:	6cda      	ldr	r2, [r3, #76]	; 0x4c
 8000d78:	f042 0202 	orr.w	r2, r2, #2
 8000d7c:	64da      	str	r2, [r3, #76]	; 0x4c
 8000d7e:	6cdb      	ldr	r3, [r3, #76]	; 0x4c
 8000d80:	f003 0302 	and.w	r3, r3, #2
 8000d84:	9300      	str	r3, [sp, #0]
 8000d86:	9b00      	ldr	r3, [sp, #0]
 8000d88:	f44f 6240 	mov.w	r2, #3072	; 0xc00
 8000d8c:	2302      	movs	r3, #2
 8000d8e:	e9cd 2301 	strd	r2, r3, [sp, #4]
 8000d92:	a901      	add	r1, sp, #4
 8000d94:	2301      	movs	r3, #1
 8000d96:	9305      	str	r3, [sp, #20]
 8000d98:	f000 fa90 	bl	80012bc <HAL_GPIO_Init>
 8000d9c:	b006      	add	sp, #24
 8000d9e:	bd10      	pop	{r4, pc}
 8000da0:	48000400 	.word	0x48000400

08000da4 <HAL_UART_MspInit>:
 8000da4:	b510      	push	{r4, lr}
 8000da6:	b09e      	sub	sp, #120	; 0x78
 8000da8:	4604      	mov	r4, r0
 8000daa:	2214      	movs	r2, #20
 8000dac:	2100      	movs	r1, #0
 8000dae:	a802      	add	r0, sp, #8
 8000db0:	f004 fcc2 	bl	8005738 <memset>
 8000db4:	225c      	movs	r2, #92	; 0x5c
 8000db6:	2100      	movs	r1, #0
 8000db8:	a807      	add	r0, sp, #28
 8000dba:	f004 fcbd 	bl	8005738 <memset>
 8000dbe:	6822      	ldr	r2, [r4, #0]
 8000dc0:	4b1b      	ldr	r3, [pc, #108]	; (8000e30 <HAL_UART_MspInit+0x8c>)
 8000dc2:	429a      	cmp	r2, r3
 8000dc4:	d131      	bne.n	8000e2a <HAL_UART_MspInit+0x86>
 8000dc6:	2304      	movs	r3, #4
 8000dc8:	a807      	add	r0, sp, #28
 8000dca:	9307      	str	r3, [sp, #28]
 8000dcc:	f001 fbaa 	bl	8002524 <HAL_RCCEx_PeriphCLKConfig>
 8000dd0:	b108      	cbz	r0, 8000dd6 <HAL_UART_MspInit+0x32>
 8000dd2:	f7ff fd1b 	bl	800080c <Error_Handler>
 8000dd6:	4b17      	ldr	r3, [pc, #92]	; (8000e34 <HAL_UART_MspInit+0x90>)
 8000dd8:	4817      	ldr	r0, [pc, #92]	; (8000e38 <HAL_UART_MspInit+0x94>)
 8000dda:	6d9a      	ldr	r2, [r3, #88]	; 0x58
 8000ddc:	f442 2280 	orr.w	r2, r2, #262144	; 0x40000
 8000de0:	659a      	str	r2, [r3, #88]	; 0x58
 8000de2:	6d9a      	ldr	r2, [r3, #88]	; 0x58
 8000de4:	f402 2280 	and.w	r2, r2, #262144	; 0x40000
 8000de8:	9200      	str	r2, [sp, #0]
 8000dea:	9a00      	ldr	r2, [sp, #0]
 8000dec:	6cda      	ldr	r2, [r3, #76]	; 0x4c
 8000dee:	f042 0204 	orr.w	r2, r2, #4
 8000df2:	64da      	str	r2, [r3, #76]	; 0x4c
 8000df4:	6cdb      	ldr	r3, [r3, #76]	; 0x4c
 8000df6:	f003 0304 	and.w	r3, r3, #4
 8000dfa:	9301      	str	r3, [sp, #4]
 8000dfc:	f44f 6240 	mov.w	r2, #3072	; 0xc00
 8000e00:	9b01      	ldr	r3, [sp, #4]
 8000e02:	2302      	movs	r3, #2
 8000e04:	e9cd 2302 	strd	r2, r3, [sp, #8]
 8000e08:	2400      	movs	r4, #0
 8000e0a:	2303      	movs	r3, #3
 8000e0c:	e9cd 4304 	strd	r4, r3, [sp, #16]
 8000e10:	a902      	add	r1, sp, #8
 8000e12:	2307      	movs	r3, #7
 8000e14:	9306      	str	r3, [sp, #24]
 8000e16:	f000 fa51 	bl	80012bc <HAL_GPIO_Init>
 8000e1a:	2027      	movs	r0, #39	; 0x27
 8000e1c:	4622      	mov	r2, r4
 8000e1e:	2105      	movs	r1, #5
 8000e20:	f000 f8e0 	bl	8000fe4 <HAL_NVIC_SetPriority>
 8000e24:	2027      	movs	r0, #39	; 0x27
 8000e26:	f000 f90f 	bl	8001048 <HAL_NVIC_EnableIRQ>
 8000e2a:	b01e      	add	sp, #120	; 0x78
 8000e2c:	bd10      	pop	{r4, pc}
 8000e2e:	bf00      	nop
 8000e30:	40004800 	.word	0x40004800
 8000e34:	40021000 	.word	0x40021000
 8000e38:	48000800 	.word	0x48000800

08000e3c <HAL_InitTick>:
 8000e3c:	4b1e      	ldr	r3, [pc, #120]	; (8000eb8 <HAL_InitTick+0x7c>)
 8000e3e:	b570      	push	{r4, r5, r6, lr}
 8000e40:	6e1a      	ldr	r2, [r3, #96]	; 0x60
 8000e42:	4d1e      	ldr	r5, [pc, #120]	; (8000ebc <HAL_InitTick+0x80>)
 8000e44:	f442 6200 	orr.w	r2, r2, #2048	; 0x800
 8000e48:	661a      	str	r2, [r3, #96]	; 0x60
 8000e4a:	6e1b      	ldr	r3, [r3, #96]	; 0x60
 8000e4c:	b088      	sub	sp, #32
 8000e4e:	f403 6300 	and.w	r3, r3, #2048	; 0x800
 8000e52:	a901      	add	r1, sp, #4
 8000e54:	9302      	str	r3, [sp, #8]
 8000e56:	4606      	mov	r6, r0
 8000e58:	a803      	add	r0, sp, #12
 8000e5a:	9b02      	ldr	r3, [sp, #8]
 8000e5c:	f001 faba 	bl	80023d4 <HAL_RCC_GetClockConfig>
 8000e60:	f001 faa6 	bl	80023b0 <HAL_RCC_GetPCLK2Freq>
 8000e64:	4b16      	ldr	r3, [pc, #88]	; (8000ec0 <HAL_InitTick+0x84>)
 8000e66:	602b      	str	r3, [r5, #0]
 8000e68:	f240 33e7 	movw	r3, #999	; 0x3e7
 8000e6c:	60eb      	str	r3, [r5, #12]
 8000e6e:	4b15      	ldr	r3, [pc, #84]	; (8000ec4 <HAL_InitTick+0x88>)
 8000e70:	fbb0 f0f3 	udiv	r0, r0, r3
 8000e74:	3801      	subs	r0, #1
 8000e76:	2300      	movs	r3, #0
 8000e78:	6068      	str	r0, [r5, #4]
 8000e7a:	4628      	mov	r0, r5
 8000e7c:	612b      	str	r3, [r5, #16]
 8000e7e:	60ab      	str	r3, [r5, #8]
 8000e80:	61ab      	str	r3, [r5, #24]
 8000e82:	f001 ff25 	bl	8002cd0 <HAL_TIM_Base_Init>
 8000e86:	4604      	mov	r4, r0
 8000e88:	b980      	cbnz	r0, 8000eac <HAL_InitTick+0x70>
 8000e8a:	4628      	mov	r0, r5
 8000e8c:	f001 fe08 	bl	8002aa0 <HAL_TIM_Base_Start_IT>
 8000e90:	4604      	mov	r4, r0
 8000e92:	b958      	cbnz	r0, 8000eac <HAL_InitTick+0x70>
 8000e94:	2019      	movs	r0, #25
 8000e96:	f000 f8d7 	bl	8001048 <HAL_NVIC_EnableIRQ>
 8000e9a:	2e0f      	cmp	r6, #15
 8000e9c:	d809      	bhi.n	8000eb2 <HAL_InitTick+0x76>
 8000e9e:	4622      	mov	r2, r4
 8000ea0:	4631      	mov	r1, r6
 8000ea2:	2019      	movs	r0, #25
 8000ea4:	f000 f89e 	bl	8000fe4 <HAL_NVIC_SetPriority>
 8000ea8:	4b07      	ldr	r3, [pc, #28]	; (8000ec8 <HAL_InitTick+0x8c>)
 8000eaa:	601e      	str	r6, [r3, #0]
 8000eac:	4620      	mov	r0, r4
 8000eae:	b008      	add	sp, #32
 8000eb0:	bd70      	pop	{r4, r5, r6, pc}
 8000eb2:	2401      	movs	r4, #1
 8000eb4:	e7fa      	b.n	8000eac <HAL_InitTick+0x70>
 8000eb6:	bf00      	nop
 8000eb8:	40021000 	.word	0x40021000
 8000ebc:	20000340 	.word	0x20000340
 8000ec0:	40012c00 	.word	0x40012c00
 8000ec4:	000f4240 	.word	0x000f4240
 8000ec8:	20000008 	.word	0x20000008

08000ecc <NMI_Handler>:
 8000ecc:	e7fe      	b.n	8000ecc <NMI_Handler>

08000ece <HardFault_Handler>:
 8000ece:	e7fe      	b.n	8000ece <HardFault_Handler>

08000ed0 <MemManage_Handler>:
 8000ed0:	e7fe      	b.n	8000ed0 <MemManage_Handler>

08000ed2 <BusFault_Handler>:
 8000ed2:	e7fe      	b.n	8000ed2 <BusFault_Handler>

08000ed4 <UsageFault_Handler>:
 8000ed4:	e7fe      	b.n	8000ed4 <UsageFault_Handler>

08000ed6 <DebugMon_Handler>:
 8000ed6:	4770      	bx	lr

08000ed8 <TIM1_UP_TIM16_IRQHandler>:
 8000ed8:	4801      	ldr	r0, [pc, #4]	; (8000ee0 <TIM1_UP_TIM16_IRQHandler+0x8>)
 8000eda:	f001 be0f 	b.w	8002afc <HAL_TIM_IRQHandler>
 8000ede:	bf00      	nop
 8000ee0:	20000340 	.word	0x20000340

08000ee4 <USART3_IRQHandler>:
 8000ee4:	4801      	ldr	r0, [pc, #4]	; (8000eec <USART3_IRQHandler+0x8>)
 8000ee6:	f002 b875 	b.w	8002fd4 <HAL_UART_IRQHandler>
 8000eea:	bf00      	nop
 8000eec:	200002a8 	.word	0x200002a8

08000ef0 <SystemInit>:
 8000ef0:	4a03      	ldr	r2, [pc, #12]	; (8000f00 <SystemInit+0x10>)
 8000ef2:	f8d2 3088 	ldr.w	r3, [r2, #136]	; 0x88
 8000ef6:	f443 0370 	orr.w	r3, r3, #15728640	; 0xf00000
 8000efa:	f8c2 3088 	str.w	r3, [r2, #136]	; 0x88
 8000efe:	4770      	bx	lr
 8000f00:	e000ed00 	.word	0xe000ed00

08000f04 <Reset_Handler>:
 8000f04:	f8df d034 	ldr.w	sp, [pc, #52]	; 8000f3c <LoopForever+0x2>
 8000f08:	f7ff fff2 	bl	8000ef0 <SystemInit>
 8000f0c:	480c      	ldr	r0, [pc, #48]	; (8000f40 <LoopForever+0x6>)
 8000f0e:	490d      	ldr	r1, [pc, #52]	; (8000f44 <LoopForever+0xa>)
 8000f10:	4a0d      	ldr	r2, [pc, #52]	; (8000f48 <LoopForever+0xe>)
 8000f12:	2300      	movs	r3, #0
 8000f14:	e002      	b.n	8000f1c <LoopCopyDataInit>

08000f16 <CopyDataInit>:
 8000f16:	58d4      	ldr	r4, [r2, r3]
 8000f18:	50c4      	str	r4, [r0, r3]
 8000f1a:	3304      	adds	r3, #4

08000f1c <LoopCopyDataInit>:
 8000f1c:	18c4      	adds	r4, r0, r3
 8000f1e:	428c      	cmp	r4, r1
 8000f20:	d3f9      	bcc.n	8000f16 <CopyDataInit>
 8000f22:	4a0a      	ldr	r2, [pc, #40]	; (8000f4c <LoopForever+0x12>)
 8000f24:	4c0a      	ldr	r4, [pc, #40]	; (8000f50 <LoopForever+0x16>)
 8000f26:	2300      	movs	r3, #0
 8000f28:	e001      	b.n	8000f2e <LoopFillZerobss>

08000f2a <FillZerobss>:
 8000f2a:	6013      	str	r3, [r2, #0]
 8000f2c:	3204      	adds	r2, #4

08000f2e <LoopFillZerobss>:
 8000f2e:	42a2      	cmp	r2, r4
 8000f30:	d3fb      	bcc.n	8000f2a <FillZerobss>
 8000f32:	f004 fbcd 	bl	80056d0 <__libc_init_array>
 8000f36:	f7ff fcad 	bl	8000894 <main>

08000f3a <LoopForever>:
 8000f3a:	e7fe      	b.n	8000f3a <LoopForever>
 8000f3c:	20010000 	.word	0x20010000
 8000f40:	20000000 	.word	0x20000000
 8000f44:	20000074 	.word	0x20000074
 8000f48:	08005a50 	.word	0x08005a50
 8000f4c:	20000074 	.word	0x20000074
 8000f50:	20002da4 	.word	0x20002da4

08000f54 <ADC1_IRQHandler>:
 8000f54:	e7fe      	b.n	8000f54 <ADC1_IRQHandler>

08000f56 <HAL_Init>:
 8000f56:	b510      	push	{r4, lr}
 8000f58:	2003      	movs	r0, #3
 8000f5a:	f000 f831 	bl	8000fc0 <HAL_NVIC_SetPriorityGrouping>
 8000f5e:	200f      	movs	r0, #15
 8000f60:	f7ff ff6c 	bl	8000e3c <HAL_InitTick>
 8000f64:	4604      	mov	r4, r0
 8000f66:	b918      	cbnz	r0, 8000f70 <HAL_Init+0x1a>
 8000f68:	f7ff fdfe 	bl	8000b68 <HAL_MspInit>
 8000f6c:	4620      	mov	r0, r4
 8000f6e:	bd10      	pop	{r4, pc}
 8000f70:	2401      	movs	r4, #1
 8000f72:	e7fb      	b.n	8000f6c <HAL_Init+0x16>

08000f74 <HAL_IncTick>:
 8000f74:	4a03      	ldr	r2, [pc, #12]	; (8000f84 <HAL_IncTick+0x10>)
 8000f76:	4b04      	ldr	r3, [pc, #16]	; (8000f88 <HAL_IncTick+0x14>)
 8000f78:	6811      	ldr	r1, [r2, #0]
 8000f7a:	781b      	ldrb	r3, [r3, #0]
 8000f7c:	440b      	add	r3, r1
 8000f7e:	6013      	str	r3, [r2, #0]
 8000f80:	4770      	bx	lr
 8000f82:	bf00      	nop
 8000f84:	2000038c 	.word	0x2000038c
 8000f88:	20000004 	.word	0x20000004

08000f8c <HAL_GetTick>:
 8000f8c:	4b01      	ldr	r3, [pc, #4]	; (8000f94 <HAL_GetTick+0x8>)
 8000f8e:	6818      	ldr	r0, [r3, #0]
 8000f90:	4770      	bx	lr
 8000f92:	bf00      	nop
 8000f94:	2000038c 	.word	0x2000038c

08000f98 <HAL_Delay>:
 8000f98:	b538      	push	{r3, r4, r5, lr}
 8000f9a:	4604      	mov	r4, r0
 8000f9c:	f7ff fff6 	bl	8000f8c <HAL_GetTick>
 8000fa0:	1c63      	adds	r3, r4, #1
 8000fa2:	bf1c      	itt	ne
 8000fa4:	4b05      	ldrne	r3, [pc, #20]	; (8000fbc <HAL_Delay+0x24>)
 8000fa6:	781b      	ldrbne	r3, [r3, #0]
 8000fa8:	4605      	mov	r5, r0
 8000faa:	bf18      	it	ne
 8000fac:	18e4      	addne	r4, r4, r3
 8000fae:	f7ff ffed 	bl	8000f8c <HAL_GetTick>
 8000fb2:	1b43      	subs	r3, r0, r5
 8000fb4:	42a3      	cmp	r3, r4
 8000fb6:	d3fa      	bcc.n	8000fae <HAL_Delay+0x16>
 8000fb8:	bd38      	pop	{r3, r4, r5, pc}
 8000fba:	bf00      	nop
 8000fbc:	20000004 	.word	0x20000004

08000fc0 <HAL_NVIC_SetPriorityGrouping>:
 8000fc0:	4907      	ldr	r1, [pc, #28]	; (8000fe0 <HAL_NVIC_SetPriorityGrouping+0x20>)
 8000fc2:	68ca      	ldr	r2, [r1, #12]
 8000fc4:	f422 62e0 	bic.w	r2, r2, #1792	; 0x700
 8000fc8:	0203      	lsls	r3, r0, #8
 8000fca:	0412      	lsls	r2, r2, #16
 8000fcc:	f403 63e0 	and.w	r3, r3, #1792	; 0x700
 8000fd0:	0c12      	lsrs	r2, r2, #16
 8000fd2:	4313      	orrs	r3, r2
 8000fd4:	f043 63bf 	orr.w	r3, r3, #100139008	; 0x5f80000
 8000fd8:	f443 3300 	orr.w	r3, r3, #131072	; 0x20000
 8000fdc:	60cb      	str	r3, [r1, #12]
 8000fde:	4770      	bx	lr
 8000fe0:	e000ed00 	.word	0xe000ed00

08000fe4 <HAL_NVIC_SetPriority>:
 8000fe4:	4b16      	ldr	r3, [pc, #88]	; (8001040 <HAL_NVIC_SetPriority+0x5c>)
 8000fe6:	b530      	push	{r4, r5, lr}
 8000fe8:	68dc      	ldr	r4, [r3, #12]
 8000fea:	f3c4 2402 	ubfx	r4, r4, #8, #3
 8000fee:	f1c4 0507 	rsb	r5, r4, #7
 8000ff2:	1d23      	adds	r3, r4, #4
 8000ff4:	2d04      	cmp	r5, #4
 8000ff6:	bf28      	it	cs
 8000ff8:	2504      	movcs	r5, #4
 8000ffa:	2b06      	cmp	r3, #6
 8000ffc:	f04f 33ff 	mov.w	r3, #4294967295	; 0xffffffff
 8001000:	bf8c      	ite	hi
 8001002:	3c03      	subhi	r4, #3
 8001004:	2400      	movls	r4, #0
 8001006:	fa03 f505 	lsl.w	r5, r3, r5
 800100a:	ea21 0105 	bic.w	r1, r1, r5
 800100e:	40a3      	lsls	r3, r4
 8001010:	ea22 0203 	bic.w	r2, r2, r3
 8001014:	40a1      	lsls	r1, r4
 8001016:	2800      	cmp	r0, #0
 8001018:	ea41 0302 	orr.w	r3, r1, r2
 800101c:	bfac      	ite	ge
 800101e:	f100 4060 	addge.w	r0, r0, #3758096384	; 0xe0000000
 8001022:	4a08      	ldrlt	r2, [pc, #32]	; (8001044 <HAL_NVIC_SetPriority+0x60>)
 8001024:	ea4f 1303 	mov.w	r3, r3, lsl #4
 8001028:	bfb8      	it	lt
 800102a:	f000 000f 	andlt.w	r0, r0, #15
 800102e:	b2db      	uxtb	r3, r3
 8001030:	bfaa      	itet	ge
 8001032:	f500 4061 	addge.w	r0, r0, #57600	; 0xe100
 8001036:	5413      	strblt	r3, [r2, r0]
 8001038:	f880 3300 	strbge.w	r3, [r0, #768]	; 0x300
 800103c:	bd30      	pop	{r4, r5, pc}
 800103e:	bf00      	nop
 8001040:	e000ed00 	.word	0xe000ed00
 8001044:	e000ed14 	.word	0xe000ed14

08001048 <HAL_NVIC_EnableIRQ>:
 8001048:	2800      	cmp	r0, #0
 800104a:	db08      	blt.n	800105e <HAL_NVIC_EnableIRQ+0x16>
 800104c:	2301      	movs	r3, #1
 800104e:	0942      	lsrs	r2, r0, #5
 8001050:	f000 001f 	and.w	r0, r0, #31
 8001054:	fa03 f000 	lsl.w	r0, r3, r0
 8001058:	4b01      	ldr	r3, [pc, #4]	; (8001060 <HAL_NVIC_EnableIRQ+0x18>)
 800105a:	f843 0022 	str.w	r0, [r3, r2, lsl #2]
 800105e:	4770      	bx	lr
 8001060:	e000e100 	.word	0xe000e100

08001064 <CRC_Handle_8>:
 8001064:	b5f0      	push	{r4, r5, r6, r7, lr}
 8001066:	f022 0503 	bic.w	r5, r2, #3
 800106a:	6806      	ldr	r6, [r0, #0]
 800106c:	460c      	mov	r4, r1
 800106e:	0897      	lsrs	r7, r2, #2
 8001070:	440d      	add	r5, r1
 8001072:	42a5      	cmp	r5, r4
 8001074:	d108      	bne.n	8001088 <CRC_Handle_8+0x24>
 8001076:	f012 0203 	ands.w	r2, r2, #3
 800107a:	d01e      	beq.n	80010ba <CRC_Handle_8+0x56>
 800107c:	2a01      	cmp	r2, #1
 800107e:	d114      	bne.n	80010aa <CRC_Handle_8+0x46>
 8001080:	f811 3027 	ldrb.w	r3, [r1, r7, lsl #2]
 8001084:	7033      	strb	r3, [r6, #0]
 8001086:	e018      	b.n	80010ba <CRC_Handle_8+0x56>
 8001088:	7863      	ldrb	r3, [r4, #1]
 800108a:	f894 c000 	ldrb.w	ip, [r4]
 800108e:	041b      	lsls	r3, r3, #16
 8001090:	ea43 630c 	orr.w	r3, r3, ip, lsl #24
 8001094:	f894 c003 	ldrb.w	ip, [r4, #3]
 8001098:	ea43 030c 	orr.w	r3, r3, ip
 800109c:	f894 c002 	ldrb.w	ip, [r4, #2]
 80010a0:	ea43 230c 	orr.w	r3, r3, ip, lsl #8
 80010a4:	6033      	str	r3, [r6, #0]
 80010a6:	3404      	adds	r4, #4
 80010a8:	e7e3      	b.n	8001072 <CRC_Handle_8+0xe>
 80010aa:	786b      	ldrb	r3, [r5, #1]
 80010ac:	2a02      	cmp	r2, #2
 80010ae:	f811 2027 	ldrb.w	r2, [r1, r7, lsl #2]
 80010b2:	ea43 2302 	orr.w	r3, r3, r2, lsl #8
 80010b6:	8033      	strh	r3, [r6, #0]
 80010b8:	d102      	bne.n	80010c0 <CRC_Handle_8+0x5c>
 80010ba:	6803      	ldr	r3, [r0, #0]
 80010bc:	6818      	ldr	r0, [r3, #0]
 80010be:	bdf0      	pop	{r4, r5, r6, r7, pc}
 80010c0:	78ab      	ldrb	r3, [r5, #2]
 80010c2:	e7df      	b.n	8001084 <CRC_Handle_8+0x20>

080010c4 <CRC_Handle_16>:
 80010c4:	6800      	ldr	r0, [r0, #0]
 80010c6:	b5f0      	push	{r4, r5, r6, r7, lr}
 80010c8:	2300      	movs	r3, #0
 80010ca:	0855      	lsrs	r5, r2, #1
 80010cc:	1c8e      	adds	r6, r1, #2
 80010ce:	429d      	cmp	r5, r3
 80010d0:	d106      	bne.n	80010e0 <CRC_Handle_16+0x1c>
 80010d2:	07d3      	lsls	r3, r2, #31
 80010d4:	bf44      	itt	mi
 80010d6:	f831 3025 	ldrhmi.w	r3, [r1, r5, lsl #2]
 80010da:	8003      	strhmi	r3, [r0, #0]
 80010dc:	6800      	ldr	r0, [r0, #0]
 80010de:	bdf0      	pop	{r4, r5, r6, r7, pc}
 80010e0:	f831 7023 	ldrh.w	r7, [r1, r3, lsl #2]
 80010e4:	f836 4023 	ldrh.w	r4, [r6, r3, lsl #2]
 80010e8:	ea44 4407 	orr.w	r4, r4, r7, lsl #16
 80010ec:	6004      	str	r4, [r0, #0]
 80010ee:	3301      	adds	r3, #1
 80010f0:	e7ed      	b.n	80010ce <CRC_Handle_16+0xa>
	...

080010f4 <HAL_CRC_Init>:
 80010f4:	b510      	push	{r4, lr}
 80010f6:	4604      	mov	r4, r0
 80010f8:	b908      	cbnz	r0, 80010fe <HAL_CRC_Init+0xa>
 80010fa:	2001      	movs	r0, #1
 80010fc:	bd10      	pop	{r4, pc}
 80010fe:	7f43      	ldrb	r3, [r0, #29]
 8001100:	f003 02ff 	and.w	r2, r3, #255	; 0xff
 8001104:	b913      	cbnz	r3, 800110c <HAL_CRC_Init+0x18>
 8001106:	7702      	strb	r2, [r0, #28]
 8001108:	f7ff fd4c 	bl	8000ba4 <HAL_CRC_MspInit>
 800110c:	2302      	movs	r3, #2
 800110e:	7763      	strb	r3, [r4, #29]
 8001110:	7923      	ldrb	r3, [r4, #4]
 8001112:	b9e3      	cbnz	r3, 800114e <HAL_CRC_Init+0x5a>
 8001114:	6823      	ldr	r3, [r4, #0]
 8001116:	4a13      	ldr	r2, [pc, #76]	; (8001164 <HAL_CRC_Init+0x70>)
 8001118:	615a      	str	r2, [r3, #20]
 800111a:	689a      	ldr	r2, [r3, #8]
 800111c:	f022 0218 	bic.w	r2, r2, #24
 8001120:	609a      	str	r2, [r3, #8]
 8001122:	7962      	ldrb	r2, [r4, #5]
 8001124:	6823      	ldr	r3, [r4, #0]
 8001126:	b9d2      	cbnz	r2, 800115e <HAL_CRC_Init+0x6a>
 8001128:	f04f 32ff 	mov.w	r2, #4294967295	; 0xffffffff
 800112c:	611a      	str	r2, [r3, #16]
 800112e:	689a      	ldr	r2, [r3, #8]
 8001130:	6961      	ldr	r1, [r4, #20]
 8001132:	f022 0260 	bic.w	r2, r2, #96	; 0x60
 8001136:	430a      	orrs	r2, r1
 8001138:	609a      	str	r2, [r3, #8]
 800113a:	689a      	ldr	r2, [r3, #8]
 800113c:	69a1      	ldr	r1, [r4, #24]
 800113e:	f022 0280 	bic.w	r2, r2, #128	; 0x80
 8001142:	430a      	orrs	r2, r1
 8001144:	609a      	str	r2, [r3, #8]
 8001146:	2301      	movs	r3, #1
 8001148:	7763      	strb	r3, [r4, #29]
 800114a:	2000      	movs	r0, #0
 800114c:	e7d6      	b.n	80010fc <HAL_CRC_Init+0x8>
 800114e:	e9d4 1202 	ldrd	r1, r2, [r4, #8]
 8001152:	4620      	mov	r0, r4
 8001154:	f000 f845 	bl	80011e2 <HAL_CRCEx_Polynomial_Set>
 8001158:	2800      	cmp	r0, #0
 800115a:	d0e2      	beq.n	8001122 <HAL_CRC_Init+0x2e>
 800115c:	e7cd      	b.n	80010fa <HAL_CRC_Init+0x6>
 800115e:	6922      	ldr	r2, [r4, #16]
 8001160:	e7e4      	b.n	800112c <HAL_CRC_Init+0x38>
 8001162:	bf00      	nop
 8001164:	04c11db7 	.word	0x04c11db7

08001168 <HAL_CRC_DeInit>:
 8001168:	b538      	push	{r3, r4, r5, lr}
 800116a:	4605      	mov	r5, r0
 800116c:	b198      	cbz	r0, 8001196 <HAL_CRC_DeInit+0x2e>
 800116e:	7f43      	ldrb	r3, [r0, #29]
 8001170:	2b02      	cmp	r3, #2
 8001172:	b2dc      	uxtb	r4, r3
 8001174:	d00d      	beq.n	8001192 <HAL_CRC_DeInit+0x2a>
 8001176:	2302      	movs	r3, #2
 8001178:	7743      	strb	r3, [r0, #29]
 800117a:	6803      	ldr	r3, [r0, #0]
 800117c:	689a      	ldr	r2, [r3, #8]
 800117e:	f042 0201 	orr.w	r2, r2, #1
 8001182:	609a      	str	r2, [r3, #8]
 8001184:	2400      	movs	r4, #0
 8001186:	791a      	ldrb	r2, [r3, #4]
 8001188:	711c      	strb	r4, [r3, #4]
 800118a:	f7ff fd1f 	bl	8000bcc <HAL_CRC_MspDeInit>
 800118e:	776c      	strb	r4, [r5, #29]
 8001190:	772c      	strb	r4, [r5, #28]
 8001192:	4620      	mov	r0, r4
 8001194:	bd38      	pop	{r3, r4, r5, pc}
 8001196:	2401      	movs	r4, #1
 8001198:	e7fb      	b.n	8001192 <HAL_CRC_DeInit+0x2a>

0800119a <HAL_CRC_Calculate>:
 800119a:	b5f8      	push	{r3, r4, r5, r6, r7, lr}
 800119c:	2602      	movs	r6, #2
 800119e:	7746      	strb	r6, [r0, #29]
 80011a0:	6806      	ldr	r6, [r0, #0]
 80011a2:	68b7      	ldr	r7, [r6, #8]
 80011a4:	f047 0701 	orr.w	r7, r7, #1
 80011a8:	60b7      	str	r7, [r6, #8]
 80011aa:	6a07      	ldr	r7, [r0, #32]
 80011ac:	2f02      	cmp	r7, #2
 80011ae:	4604      	mov	r4, r0
 80011b0:	d014      	beq.n	80011dc <HAL_CRC_Calculate+0x42>
 80011b2:	2f03      	cmp	r7, #3
 80011b4:	d005      	beq.n	80011c2 <HAL_CRC_Calculate+0x28>
 80011b6:	2f01      	cmp	r7, #1
 80011b8:	d00d      	beq.n	80011d6 <HAL_CRC_Calculate+0x3c>
 80011ba:	2000      	movs	r0, #0
 80011bc:	2301      	movs	r3, #1
 80011be:	7763      	strb	r3, [r4, #29]
 80011c0:	bdf8      	pop	{r3, r4, r5, r6, r7, pc}
 80011c2:	eb01 0582 	add.w	r5, r1, r2, lsl #2
 80011c6:	42a9      	cmp	r1, r5
 80011c8:	d101      	bne.n	80011ce <HAL_CRC_Calculate+0x34>
 80011ca:	6830      	ldr	r0, [r6, #0]
 80011cc:	e7f6      	b.n	80011bc <HAL_CRC_Calculate+0x22>
 80011ce:	f851 3b04 	ldr.w	r3, [r1], #4
 80011d2:	6033      	str	r3, [r6, #0]
 80011d4:	e7f7      	b.n	80011c6 <HAL_CRC_Calculate+0x2c>
 80011d6:	f7ff ff45 	bl	8001064 <CRC_Handle_8>
 80011da:	e7ef      	b.n	80011bc <HAL_CRC_Calculate+0x22>
 80011dc:	f7ff ff72 	bl	80010c4 <CRC_Handle_16>
 80011e0:	e7ec      	b.n	80011bc <HAL_CRC_Calculate+0x22>

080011e2 <HAL_CRCEx_Polynomial_Set>:
 80011e2:	b510      	push	{r4, lr}
 80011e4:	231f      	movs	r3, #31
 80011e6:	3b01      	subs	r3, #1
 80011e8:	d31c      	bcc.n	8001224 <HAL_CRCEx_Polynomial_Set+0x42>
 80011ea:	fa21 f403 	lsr.w	r4, r1, r3
 80011ee:	07e4      	lsls	r4, r4, #31
 80011f0:	d5f9      	bpl.n	80011e6 <HAL_CRCEx_Polynomial_Set+0x4>
 80011f2:	2a10      	cmp	r2, #16
 80011f4:	d012      	beq.n	800121c <HAL_CRCEx_Polynomial_Set+0x3a>
 80011f6:	d804      	bhi.n	8001202 <HAL_CRCEx_Polynomial_Set+0x20>
 80011f8:	b13a      	cbz	r2, 800120a <HAL_CRCEx_Polynomial_Set+0x28>
 80011fa:	2a08      	cmp	r2, #8
 80011fc:	d010      	beq.n	8001220 <HAL_CRCEx_Polynomial_Set+0x3e>
 80011fe:	2001      	movs	r0, #1
 8001200:	e00b      	b.n	800121a <HAL_CRCEx_Polynomial_Set+0x38>
 8001202:	2a18      	cmp	r2, #24
 8001204:	d1fb      	bne.n	80011fe <HAL_CRCEx_Polynomial_Set+0x1c>
 8001206:	2b06      	cmp	r3, #6
 8001208:	d8f9      	bhi.n	80011fe <HAL_CRCEx_Polynomial_Set+0x1c>
 800120a:	6800      	ldr	r0, [r0, #0]
 800120c:	6141      	str	r1, [r0, #20]
 800120e:	6883      	ldr	r3, [r0, #8]
 8001210:	f023 0318 	bic.w	r3, r3, #24
 8001214:	431a      	orrs	r2, r3
 8001216:	6082      	str	r2, [r0, #8]
 8001218:	2000      	movs	r0, #0
 800121a:	bd10      	pop	{r4, pc}
 800121c:	2b07      	cmp	r3, #7
 800121e:	e7f3      	b.n	8001208 <HAL_CRCEx_Polynomial_Set+0x26>
 8001220:	2b0f      	cmp	r3, #15
 8001222:	e7f1      	b.n	8001208 <HAL_CRCEx_Polynomial_Set+0x26>
 8001224:	2a00      	cmp	r2, #0
 8001226:	d1ea      	bne.n	80011fe <HAL_CRCEx_Polynomial_Set+0x1c>
 8001228:	e7ef      	b.n	800120a <HAL_CRCEx_Polynomial_Set+0x28>

0800122a <HAL_DMA_Abort>:
 800122a:	f890 3025 	ldrb.w	r3, [r0, #37]	; 0x25
 800122e:	2b02      	cmp	r3, #2
 8001230:	d006      	beq.n	8001240 <HAL_DMA_Abort+0x16>
 8001232:	2304      	movs	r3, #4
 8001234:	63c3      	str	r3, [r0, #60]	; 0x3c
 8001236:	2300      	movs	r3, #0
 8001238:	f880 3024 	strb.w	r3, [r0, #36]	; 0x24
 800123c:	2001      	movs	r0, #1
 800123e:	4770      	bx	lr
 8001240:	6803      	ldr	r3, [r0, #0]
 8001242:	681a      	ldr	r2, [r3, #0]
 8001244:	f022 020e 	bic.w	r2, r2, #14
 8001248:	601a      	str	r2, [r3, #0]
 800124a:	681a      	ldr	r2, [r3, #0]
 800124c:	f022 0201 	bic.w	r2, r2, #1
 8001250:	601a      	str	r2, [r3, #0]
 8001252:	e9d0 1310 	ldrd	r1, r3, [r0, #64]	; 0x40
 8001256:	2201      	movs	r2, #1
 8001258:	f003 031c 	and.w	r3, r3, #28
 800125c:	fa02 f303 	lsl.w	r3, r2, r3
 8001260:	604b      	str	r3, [r1, #4]
 8001262:	2300      	movs	r3, #0
 8001264:	f880 2025 	strb.w	r2, [r0, #37]	; 0x25
 8001268:	f880 3024 	strb.w	r3, [r0, #36]	; 0x24
 800126c:	4618      	mov	r0, r3
 800126e:	4770      	bx	lr

08001270 <HAL_DMA_Abort_IT>:
 8001270:	b510      	push	{r4, lr}
 8001272:	f890 2025 	ldrb.w	r2, [r0, #37]	; 0x25
 8001276:	2a02      	cmp	r2, #2
 8001278:	d003      	beq.n	8001282 <HAL_DMA_Abort_IT+0x12>
 800127a:	2204      	movs	r2, #4
 800127c:	63c2      	str	r2, [r0, #60]	; 0x3c
 800127e:	2001      	movs	r0, #1
 8001280:	bd10      	pop	{r4, pc}
 8001282:	6802      	ldr	r2, [r0, #0]
 8001284:	6b83      	ldr	r3, [r0, #56]	; 0x38
 8001286:	6811      	ldr	r1, [r2, #0]
 8001288:	f021 010e 	bic.w	r1, r1, #14
 800128c:	6011      	str	r1, [r2, #0]
 800128e:	6811      	ldr	r1, [r2, #0]
 8001290:	f021 0101 	bic.w	r1, r1, #1
 8001294:	6011      	str	r1, [r2, #0]
 8001296:	e9d0 4210 	ldrd	r4, r2, [r0, #64]	; 0x40
 800129a:	2101      	movs	r1, #1
 800129c:	f002 021c 	and.w	r2, r2, #28
 80012a0:	fa01 f202 	lsl.w	r2, r1, r2
 80012a4:	6062      	str	r2, [r4, #4]
 80012a6:	2400      	movs	r4, #0
 80012a8:	f880 1025 	strb.w	r1, [r0, #37]	; 0x25
 80012ac:	f880 4024 	strb.w	r4, [r0, #36]	; 0x24
 80012b0:	b113      	cbz	r3, 80012b8 <HAL_DMA_Abort_IT+0x48>
 80012b2:	4798      	blx	r3
 80012b4:	4620      	mov	r0, r4
 80012b6:	e7e3      	b.n	8001280 <HAL_DMA_Abort_IT+0x10>
 80012b8:	4618      	mov	r0, r3
 80012ba:	e7e1      	b.n	8001280 <HAL_DMA_Abort_IT+0x10>

080012bc <HAL_GPIO_Init>:
 80012bc:	e92d 4ff7 	stmdb	sp!, {r0, r1, r2, r4, r5, r6, r7, r8, r9, sl, fp, lr}
 80012c0:	f8df 917c 	ldr.w	r9, [pc, #380]	; 8001440 <HAL_GPIO_Init+0x184>
 80012c4:	4c5c      	ldr	r4, [pc, #368]	; (8001438 <HAL_GPIO_Init+0x17c>)
 80012c6:	2300      	movs	r3, #0
 80012c8:	680a      	ldr	r2, [r1, #0]
 80012ca:	fa32 f503 	lsrs.w	r5, r2, r3
 80012ce:	d102      	bne.n	80012d6 <HAL_GPIO_Init+0x1a>
 80012d0:	b003      	add	sp, #12
 80012d2:	e8bd 8ff0 	ldmia.w	sp!, {r4, r5, r6, r7, r8, r9, sl, fp, pc}
 80012d6:	2501      	movs	r5, #1
 80012d8:	fa05 fe03 	lsl.w	lr, r5, r3
 80012dc:	ea1e 0202 	ands.w	r2, lr, r2
 80012e0:	f000 80a0 	beq.w	8001424 <HAL_GPIO_Init+0x168>
 80012e4:	684e      	ldr	r6, [r1, #4]
 80012e6:	2703      	movs	r7, #3
 80012e8:	f006 0503 	and.w	r5, r6, #3
 80012ec:	ea4f 0843 	mov.w	r8, r3, lsl #1
 80012f0:	fa07 fc08 	lsl.w	ip, r7, r8
 80012f4:	1e6f      	subs	r7, r5, #1
 80012f6:	2f01      	cmp	r7, #1
 80012f8:	ea6f 0c0c 	mvn.w	ip, ip
 80012fc:	d834      	bhi.n	8001368 <HAL_GPIO_Init+0xac>
 80012fe:	6887      	ldr	r7, [r0, #8]
 8001300:	ea07 0a0c 	and.w	sl, r7, ip
 8001304:	68cf      	ldr	r7, [r1, #12]
 8001306:	fa07 f708 	lsl.w	r7, r7, r8
 800130a:	ea47 070a 	orr.w	r7, r7, sl
 800130e:	6087      	str	r7, [r0, #8]
 8001310:	6847      	ldr	r7, [r0, #4]
 8001312:	ea27 0e0e 	bic.w	lr, r7, lr
 8001316:	f3c6 1700 	ubfx	r7, r6, #4, #1
 800131a:	409f      	lsls	r7, r3
 800131c:	ea47 070e 	orr.w	r7, r7, lr
 8001320:	6047      	str	r7, [r0, #4]
 8001322:	68c7      	ldr	r7, [r0, #12]
 8001324:	ea07 0e0c 	and.w	lr, r7, ip
 8001328:	688f      	ldr	r7, [r1, #8]
 800132a:	fa07 f708 	lsl.w	r7, r7, r8
 800132e:	ea47 070e 	orr.w	r7, r7, lr
 8001332:	2d02      	cmp	r5, #2
 8001334:	60c7      	str	r7, [r0, #12]
 8001336:	d119      	bne.n	800136c <HAL_GPIO_Init+0xb0>
 8001338:	ea4f 0ad3 	mov.w	sl, r3, lsr #3
 800133c:	eb00 0a8a 	add.w	sl, r0, sl, lsl #2
 8001340:	f003 0b07 	and.w	fp, r3, #7
 8001344:	f8da 7020 	ldr.w	r7, [sl, #32]
 8001348:	ea4f 0b8b 	mov.w	fp, fp, lsl #2
 800134c:	f04f 0e0f 	mov.w	lr, #15
 8001350:	fa0e fe0b 	lsl.w	lr, lr, fp
 8001354:	ea27 0e0e 	bic.w	lr, r7, lr
 8001358:	690f      	ldr	r7, [r1, #16]
 800135a:	fa07 f70b 	lsl.w	r7, r7, fp
 800135e:	ea47 070e 	orr.w	r7, r7, lr
 8001362:	f8ca 7020 	str.w	r7, [sl, #32]
 8001366:	e001      	b.n	800136c <HAL_GPIO_Init+0xb0>
 8001368:	2d03      	cmp	r5, #3
 800136a:	d1da      	bne.n	8001322 <HAL_GPIO_Init+0x66>
 800136c:	6807      	ldr	r7, [r0, #0]
 800136e:	fa05 f508 	lsl.w	r5, r5, r8
 8001372:	ea07 070c 	and.w	r7, r7, ip
 8001376:	432f      	orrs	r7, r5
 8001378:	f416 3f40 	tst.w	r6, #196608	; 0x30000
 800137c:	6007      	str	r7, [r0, #0]
 800137e:	d051      	beq.n	8001424 <HAL_GPIO_Init+0x168>
 8001380:	f8d9 5060 	ldr.w	r5, [r9, #96]	; 0x60
 8001384:	f045 0501 	orr.w	r5, r5, #1
 8001388:	f8c9 5060 	str.w	r5, [r9, #96]	; 0x60
 800138c:	f8d9 5060 	ldr.w	r5, [r9, #96]	; 0x60
 8001390:	f023 0703 	bic.w	r7, r3, #3
 8001394:	f107 4780 	add.w	r7, r7, #1073741824	; 0x40000000
 8001398:	f005 0501 	and.w	r5, r5, #1
 800139c:	f507 3780 	add.w	r7, r7, #65536	; 0x10000
 80013a0:	9501      	str	r5, [sp, #4]
 80013a2:	f003 0e03 	and.w	lr, r3, #3
 80013a6:	9d01      	ldr	r5, [sp, #4]
 80013a8:	68bd      	ldr	r5, [r7, #8]
 80013aa:	ea4f 0e8e 	mov.w	lr, lr, lsl #2
 80013ae:	f04f 0c0f 	mov.w	ip, #15
 80013b2:	fa0c fc0e 	lsl.w	ip, ip, lr
 80013b6:	f1b0 4f90 	cmp.w	r0, #1207959552	; 0x48000000
 80013ba:	ea25 0c0c 	bic.w	ip, r5, ip
 80013be:	d033      	beq.n	8001428 <HAL_GPIO_Init+0x16c>
 80013c0:	4d1e      	ldr	r5, [pc, #120]	; (800143c <HAL_GPIO_Init+0x180>)
 80013c2:	42a8      	cmp	r0, r5
 80013c4:	d032      	beq.n	800142c <HAL_GPIO_Init+0x170>
 80013c6:	f505 6580 	add.w	r5, r5, #1024	; 0x400
 80013ca:	42a8      	cmp	r0, r5
 80013cc:	d030      	beq.n	8001430 <HAL_GPIO_Init+0x174>
 80013ce:	f505 6580 	add.w	r5, r5, #1024	; 0x400
 80013d2:	42a8      	cmp	r0, r5
 80013d4:	d02e      	beq.n	8001434 <HAL_GPIO_Init+0x178>
 80013d6:	f505 6580 	add.w	r5, r5, #1024	; 0x400
 80013da:	42a8      	cmp	r0, r5
 80013dc:	bf0c      	ite	eq
 80013de:	2504      	moveq	r5, #4
 80013e0:	2507      	movne	r5, #7
 80013e2:	fa05 f50e 	lsl.w	r5, r5, lr
 80013e6:	ea45 050c 	orr.w	r5, r5, ip
 80013ea:	60bd      	str	r5, [r7, #8]
 80013ec:	68a5      	ldr	r5, [r4, #8]
 80013ee:	43d7      	mvns	r7, r2
 80013f0:	f416 1f80 	tst.w	r6, #1048576	; 0x100000
 80013f4:	bf0c      	ite	eq
 80013f6:	403d      	andeq	r5, r7
 80013f8:	4315      	orrne	r5, r2
 80013fa:	60a5      	str	r5, [r4, #8]
 80013fc:	68e5      	ldr	r5, [r4, #12]
 80013fe:	f416 1f00 	tst.w	r6, #2097152	; 0x200000
 8001402:	bf0c      	ite	eq
 8001404:	403d      	andeq	r5, r7
 8001406:	4315      	orrne	r5, r2
 8001408:	60e5      	str	r5, [r4, #12]
 800140a:	6865      	ldr	r5, [r4, #4]
 800140c:	f416 3f00 	tst.w	r6, #131072	; 0x20000
 8001410:	bf0c      	ite	eq
 8001412:	403d      	andeq	r5, r7
 8001414:	4315      	orrne	r5, r2
 8001416:	6065      	str	r5, [r4, #4]
 8001418:	6825      	ldr	r5, [r4, #0]
 800141a:	03f6      	lsls	r6, r6, #15
 800141c:	bf54      	ite	pl
 800141e:	403d      	andpl	r5, r7
 8001420:	4315      	orrmi	r5, r2
 8001422:	6025      	str	r5, [r4, #0]
 8001424:	3301      	adds	r3, #1
 8001426:	e74f      	b.n	80012c8 <HAL_GPIO_Init+0xc>
 8001428:	2500      	movs	r5, #0
 800142a:	e7da      	b.n	80013e2 <HAL_GPIO_Init+0x126>
 800142c:	2501      	movs	r5, #1
 800142e:	e7d8      	b.n	80013e2 <HAL_GPIO_Init+0x126>
 8001430:	2502      	movs	r5, #2
 8001432:	e7d6      	b.n	80013e2 <HAL_GPIO_Init+0x126>
 8001434:	2503      	movs	r5, #3
 8001436:	e7d4      	b.n	80013e2 <HAL_GPIO_Init+0x126>
 8001438:	40010400 	.word	0x40010400
 800143c:	48000400 	.word	0x48000400
 8001440:	40021000 	.word	0x40021000

08001444 <HAL_GPIO_WritePin>:
 8001444:	b10a      	cbz	r2, 800144a <HAL_GPIO_WritePin+0x6>
 8001446:	6181      	str	r1, [r0, #24]
 8001448:	4770      	bx	lr
 800144a:	6281      	str	r1, [r0, #40]	; 0x28
 800144c:	4770      	bx	lr

0800144e <HAL_GPIO_TogglePin>:
 800144e:	6943      	ldr	r3, [r0, #20]
 8001450:	ea01 0203 	and.w	r2, r1, r3
 8001454:	ea21 0103 	bic.w	r1, r1, r3
 8001458:	ea41 4102 	orr.w	r1, r1, r2, lsl #16
 800145c:	6181      	str	r1, [r0, #24]
 800145e:	4770      	bx	lr

08001460 <I2C_Flush_TXDR>:
 8001460:	6803      	ldr	r3, [r0, #0]
 8001462:	699a      	ldr	r2, [r3, #24]
 8001464:	0791      	lsls	r1, r2, #30
 8001466:	bf44      	itt	mi
 8001468:	2200      	movmi	r2, #0
 800146a:	629a      	strmi	r2, [r3, #40]	; 0x28
 800146c:	699a      	ldr	r2, [r3, #24]
 800146e:	07d2      	lsls	r2, r2, #31
 8001470:	bf5e      	ittt	pl
 8001472:	699a      	ldrpl	r2, [r3, #24]
 8001474:	f042 0201 	orrpl.w	r2, r2, #1
 8001478:	619a      	strpl	r2, [r3, #24]
 800147a:	4770      	bx	lr

0800147c <I2C_TransferConfig>:
 800147c:	b530      	push	{r4, r5, lr}
 800147e:	9d03      	ldr	r5, [sp, #12]
 8001480:	6804      	ldr	r4, [r0, #0]
 8001482:	432b      	orrs	r3, r5
 8001484:	ea43 4302 	orr.w	r3, r3, r2, lsl #16
 8001488:	4a06      	ldr	r2, [pc, #24]	; (80014a4 <I2C_TransferConfig+0x28>)
 800148a:	6860      	ldr	r0, [r4, #4]
 800148c:	f3c1 0109 	ubfx	r1, r1, #0, #10
 8001490:	430b      	orrs	r3, r1
 8001492:	ea42 5255 	orr.w	r2, r2, r5, lsr #21
 8001496:	f023 4300 	bic.w	r3, r3, #2147483648	; 0x80000000
 800149a:	ea20 0002 	bic.w	r0, r0, r2
 800149e:	4303      	orrs	r3, r0
 80014a0:	6063      	str	r3, [r4, #4]
 80014a2:	bd30      	pop	{r4, r5, pc}
 80014a4:	03ff63ff 	.word	0x03ff63ff

080014a8 <I2C_IsErrorOccurred>:
 80014a8:	e92d 43f8 	stmdb	sp!, {r3, r4, r5, r6, r7, r8, r9, lr}
 80014ac:	6803      	ldr	r3, [r0, #0]
 80014ae:	699c      	ldr	r4, [r3, #24]
 80014b0:	f014 0410 	ands.w	r4, r4, #16
 80014b4:	4605      	mov	r5, r0
 80014b6:	4688      	mov	r8, r1
 80014b8:	4617      	mov	r7, r2
 80014ba:	d079      	beq.n	80015b0 <I2C_IsErrorOccurred+0x108>
 80014bc:	2210      	movs	r2, #16
 80014be:	61da      	str	r2, [r3, #28]
 80014c0:	2600      	movs	r6, #0
 80014c2:	f04f 0920 	mov.w	r9, #32
 80014c6:	682b      	ldr	r3, [r5, #0]
 80014c8:	699a      	ldr	r2, [r3, #24]
 80014ca:	0694      	lsls	r4, r2, #26
 80014cc:	d436      	bmi.n	800153c <I2C_IsErrorOccurred+0x94>
 80014ce:	b10e      	cbz	r6, 80014d4 <I2C_IsErrorOccurred+0x2c>
 80014d0:	2404      	movs	r4, #4
 80014d2:	e039      	b.n	8001548 <I2C_IsErrorOccurred+0xa0>
 80014d4:	f1b8 3fff 	cmp.w	r8, #4294967295	; 0xffffffff
 80014d8:	d0f6      	beq.n	80014c8 <I2C_IsErrorOccurred+0x20>
 80014da:	f7ff fd57 	bl	8000f8c <HAL_GetTick>
 80014de:	1bc0      	subs	r0, r0, r7
 80014e0:	4540      	cmp	r0, r8
 80014e2:	d802      	bhi.n	80014ea <I2C_IsErrorOccurred+0x42>
 80014e4:	f1b8 0f00 	cmp.w	r8, #0
 80014e8:	d1ed      	bne.n	80014c6 <I2C_IsErrorOccurred+0x1e>
 80014ea:	682b      	ldr	r3, [r5, #0]
 80014ec:	6859      	ldr	r1, [r3, #4]
 80014ee:	f895 2042 	ldrb.w	r2, [r5, #66]	; 0x42
 80014f2:	6998      	ldr	r0, [r3, #24]
 80014f4:	0400      	lsls	r0, r0, #16
 80014f6:	b2d2      	uxtb	r2, r2
 80014f8:	d50a      	bpl.n	8001510 <I2C_IsErrorOccurred+0x68>
 80014fa:	0449      	lsls	r1, r1, #17
 80014fc:	d408      	bmi.n	8001510 <I2C_IsErrorOccurred+0x68>
 80014fe:	2a20      	cmp	r2, #32
 8001500:	d006      	beq.n	8001510 <I2C_IsErrorOccurred+0x68>
 8001502:	685a      	ldr	r2, [r3, #4]
 8001504:	f442 4280 	orr.w	r2, r2, #16384	; 0x4000
 8001508:	605a      	str	r2, [r3, #4]
 800150a:	f7ff fd3f 	bl	8000f8c <HAL_GetTick>
 800150e:	4607      	mov	r7, r0
 8001510:	682b      	ldr	r3, [r5, #0]
 8001512:	699c      	ldr	r4, [r3, #24]
 8001514:	f014 0420 	ands.w	r4, r4, #32
 8001518:	d1d5      	bne.n	80014c6 <I2C_IsErrorOccurred+0x1e>
 800151a:	f7ff fd37 	bl	8000f8c <HAL_GetTick>
 800151e:	1bc0      	subs	r0, r0, r7
 8001520:	2819      	cmp	r0, #25
 8001522:	d9f5      	bls.n	8001510 <I2C_IsErrorOccurred+0x68>
 8001524:	6c6b      	ldr	r3, [r5, #68]	; 0x44
 8001526:	f885 4040 	strb.w	r4, [r5, #64]	; 0x40
 800152a:	f043 0320 	orr.w	r3, r3, #32
 800152e:	646b      	str	r3, [r5, #68]	; 0x44
 8001530:	2601      	movs	r6, #1
 8001532:	f885 9041 	strb.w	r9, [r5, #65]	; 0x41
 8001536:	f885 4042 	strb.w	r4, [r5, #66]	; 0x42
 800153a:	e7e9      	b.n	8001510 <I2C_IsErrorOccurred+0x68>
 800153c:	2e00      	cmp	r6, #0
 800153e:	d1c7      	bne.n	80014d0 <I2C_IsErrorOccurred+0x28>
 8001540:	2220      	movs	r2, #32
 8001542:	61da      	str	r2, [r3, #28]
 8001544:	2404      	movs	r4, #4
 8001546:	2601      	movs	r6, #1
 8001548:	682b      	ldr	r3, [r5, #0]
 800154a:	699a      	ldr	r2, [r3, #24]
 800154c:	05d0      	lsls	r0, r2, #23
 800154e:	bf41      	itttt	mi
 8001550:	f44f 7180 	movmi.w	r1, #256	; 0x100
 8001554:	61d9      	strmi	r1, [r3, #28]
 8001556:	f044 0401 	orrmi.w	r4, r4, #1
 800155a:	2601      	movmi	r6, #1
 800155c:	0551      	lsls	r1, r2, #21
 800155e:	bf41      	itttt	mi
 8001560:	f44f 6180 	movmi.w	r1, #1024	; 0x400
 8001564:	f044 0408 	orrmi.w	r4, r4, #8
 8001568:	61d9      	strmi	r1, [r3, #28]
 800156a:	2601      	movmi	r6, #1
 800156c:	0592      	lsls	r2, r2, #22
 800156e:	d521      	bpl.n	80015b4 <I2C_IsErrorOccurred+0x10c>
 8001570:	f44f 7200 	mov.w	r2, #512	; 0x200
 8001574:	f044 0402 	orr.w	r4, r4, #2
 8001578:	61da      	str	r2, [r3, #28]
 800157a:	4628      	mov	r0, r5
 800157c:	f7ff ff70 	bl	8001460 <I2C_Flush_TXDR>
 8001580:	682a      	ldr	r2, [r5, #0]
 8001582:	6853      	ldr	r3, [r2, #4]
 8001584:	f023 73ff 	bic.w	r3, r3, #33423360	; 0x1fe0000
 8001588:	f423 338b 	bic.w	r3, r3, #71168	; 0x11600
 800158c:	f423 73ff 	bic.w	r3, r3, #510	; 0x1fe
 8001590:	f023 0301 	bic.w	r3, r3, #1
 8001594:	6053      	str	r3, [r2, #4]
 8001596:	6c6b      	ldr	r3, [r5, #68]	; 0x44
 8001598:	431c      	orrs	r4, r3
 800159a:	2320      	movs	r3, #32
 800159c:	646c      	str	r4, [r5, #68]	; 0x44
 800159e:	f885 3041 	strb.w	r3, [r5, #65]	; 0x41
 80015a2:	2300      	movs	r3, #0
 80015a4:	f885 3042 	strb.w	r3, [r5, #66]	; 0x42
 80015a8:	f885 3040 	strb.w	r3, [r5, #64]	; 0x40
 80015ac:	2601      	movs	r6, #1
 80015ae:	e003      	b.n	80015b8 <I2C_IsErrorOccurred+0x110>
 80015b0:	4626      	mov	r6, r4
 80015b2:	e7c9      	b.n	8001548 <I2C_IsErrorOccurred+0xa0>
 80015b4:	2e00      	cmp	r6, #0
 80015b6:	d1e0      	bne.n	800157a <I2C_IsErrorOccurred+0xd2>
 80015b8:	4630      	mov	r0, r6
 80015ba:	e8bd 83f8 	ldmia.w	sp!, {r3, r4, r5, r6, r7, r8, r9, pc}

080015be <I2C_WaitOnTXISFlagUntilTimeout>:
 80015be:	b570      	push	{r4, r5, r6, lr}
 80015c0:	4604      	mov	r4, r0
 80015c2:	460d      	mov	r5, r1
 80015c4:	4616      	mov	r6, r2
 80015c6:	6823      	ldr	r3, [r4, #0]
 80015c8:	699b      	ldr	r3, [r3, #24]
 80015ca:	079b      	lsls	r3, r3, #30
 80015cc:	d501      	bpl.n	80015d2 <I2C_WaitOnTXISFlagUntilTimeout+0x14>
 80015ce:	2000      	movs	r0, #0
 80015d0:	bd70      	pop	{r4, r5, r6, pc}
 80015d2:	4632      	mov	r2, r6
 80015d4:	4629      	mov	r1, r5
 80015d6:	4620      	mov	r0, r4
 80015d8:	f7ff ff66 	bl	80014a8 <I2C_IsErrorOccurred>
 80015dc:	b9a0      	cbnz	r0, 8001608 <I2C_WaitOnTXISFlagUntilTimeout+0x4a>
 80015de:	1c6a      	adds	r2, r5, #1
 80015e0:	d0f1      	beq.n	80015c6 <I2C_WaitOnTXISFlagUntilTimeout+0x8>
 80015e2:	f7ff fcd3 	bl	8000f8c <HAL_GetTick>
 80015e6:	1b80      	subs	r0, r0, r6
 80015e8:	42a8      	cmp	r0, r5
 80015ea:	d801      	bhi.n	80015f0 <I2C_WaitOnTXISFlagUntilTimeout+0x32>
 80015ec:	2d00      	cmp	r5, #0
 80015ee:	d1ea      	bne.n	80015c6 <I2C_WaitOnTXISFlagUntilTimeout+0x8>
 80015f0:	6c63      	ldr	r3, [r4, #68]	; 0x44
 80015f2:	f043 0320 	orr.w	r3, r3, #32
 80015f6:	6463      	str	r3, [r4, #68]	; 0x44
 80015f8:	2320      	movs	r3, #32
 80015fa:	f884 3041 	strb.w	r3, [r4, #65]	; 0x41
 80015fe:	2300      	movs	r3, #0
 8001600:	f884 3042 	strb.w	r3, [r4, #66]	; 0x42
 8001604:	f884 3040 	strb.w	r3, [r4, #64]	; 0x40
 8001608:	2001      	movs	r0, #1
 800160a:	e7e1      	b.n	80015d0 <I2C_WaitOnTXISFlagUntilTimeout+0x12>

0800160c <I2C_WaitOnFlagUntilTimeout>:
 800160c:	e92d 41f0 	stmdb	sp!, {r4, r5, r6, r7, r8, lr}
 8001610:	9f06      	ldr	r7, [sp, #24]
 8001612:	4604      	mov	r4, r0
 8001614:	4688      	mov	r8, r1
 8001616:	4616      	mov	r6, r2
 8001618:	461d      	mov	r5, r3
 800161a:	6822      	ldr	r2, [r4, #0]
 800161c:	6993      	ldr	r3, [r2, #24]
 800161e:	ea38 0303 	bics.w	r3, r8, r3
 8001622:	bf0c      	ite	eq
 8001624:	2301      	moveq	r3, #1
 8001626:	2300      	movne	r3, #0
 8001628:	42b3      	cmp	r3, r6
 800162a:	d001      	beq.n	8001630 <I2C_WaitOnFlagUntilTimeout+0x24>
 800162c:	2000      	movs	r0, #0
 800162e:	e015      	b.n	800165c <I2C_WaitOnFlagUntilTimeout+0x50>
 8001630:	1c6b      	adds	r3, r5, #1
 8001632:	d0f3      	beq.n	800161c <I2C_WaitOnFlagUntilTimeout+0x10>
 8001634:	f7ff fcaa 	bl	8000f8c <HAL_GetTick>
 8001638:	1bc0      	subs	r0, r0, r7
 800163a:	42a8      	cmp	r0, r5
 800163c:	d801      	bhi.n	8001642 <I2C_WaitOnFlagUntilTimeout+0x36>
 800163e:	2d00      	cmp	r5, #0
 8001640:	d1eb      	bne.n	800161a <I2C_WaitOnFlagUntilTimeout+0xe>
 8001642:	6c63      	ldr	r3, [r4, #68]	; 0x44
 8001644:	f043 0320 	orr.w	r3, r3, #32
 8001648:	6463      	str	r3, [r4, #68]	; 0x44
 800164a:	2320      	movs	r3, #32
 800164c:	f884 3041 	strb.w	r3, [r4, #65]	; 0x41
 8001650:	2300      	movs	r3, #0
 8001652:	f884 3042 	strb.w	r3, [r4, #66]	; 0x42
 8001656:	f884 3040 	strb.w	r3, [r4, #64]	; 0x40
 800165a:	2001      	movs	r0, #1
 800165c:	e8bd 81f0 	ldmia.w	sp!, {r4, r5, r6, r7, r8, pc}

08001660 <I2C_WaitOnSTOPFlagUntilTimeout>:
 8001660:	b570      	push	{r4, r5, r6, lr}
 8001662:	4604      	mov	r4, r0
 8001664:	460d      	mov	r5, r1
 8001666:	4616      	mov	r6, r2
 8001668:	6823      	ldr	r3, [r4, #0]
 800166a:	699b      	ldr	r3, [r3, #24]
 800166c:	069b      	lsls	r3, r3, #26
 800166e:	d501      	bpl.n	8001674 <I2C_WaitOnSTOPFlagUntilTimeout+0x14>
 8001670:	2000      	movs	r0, #0
 8001672:	bd70      	pop	{r4, r5, r6, pc}
 8001674:	4632      	mov	r2, r6
 8001676:	4629      	mov	r1, r5
 8001678:	4620      	mov	r0, r4
 800167a:	f7ff ff15 	bl	80014a8 <I2C_IsErrorOccurred>
 800167e:	b990      	cbnz	r0, 80016a6 <I2C_WaitOnSTOPFlagUntilTimeout+0x46>
 8001680:	f7ff fc84 	bl	8000f8c <HAL_GetTick>
 8001684:	1b80      	subs	r0, r0, r6
 8001686:	42a8      	cmp	r0, r5
 8001688:	d801      	bhi.n	800168e <I2C_WaitOnSTOPFlagUntilTimeout+0x2e>
 800168a:	2d00      	cmp	r5, #0
 800168c:	d1ec      	bne.n	8001668 <I2C_WaitOnSTOPFlagUntilTimeout+0x8>
 800168e:	6c63      	ldr	r3, [r4, #68]	; 0x44
 8001690:	f043 0320 	orr.w	r3, r3, #32
 8001694:	6463      	str	r3, [r4, #68]	; 0x44
 8001696:	2320      	movs	r3, #32
 8001698:	f884 3041 	strb.w	r3, [r4, #65]	; 0x41
 800169c:	2300      	movs	r3, #0
 800169e:	f884 3042 	strb.w	r3, [r4, #66]	; 0x42
 80016a2:	f884 3040 	strb.w	r3, [r4, #64]	; 0x40
 80016a6:	2001      	movs	r0, #1
 80016a8:	e7e3      	b.n	8001672 <I2C_WaitOnSTOPFlagUntilTimeout+0x12>

080016aa <HAL_I2C_Init>:
 80016aa:	b510      	push	{r4, lr}
 80016ac:	4604      	mov	r4, r0
 80016ae:	2800      	cmp	r0, #0
 80016b0:	d04a      	beq.n	8001748 <HAL_I2C_Init+0x9e>
 80016b2:	f890 3041 	ldrb.w	r3, [r0, #65]	; 0x41
 80016b6:	f003 02ff 	and.w	r2, r3, #255	; 0xff
 80016ba:	b91b      	cbnz	r3, 80016c4 <HAL_I2C_Init+0x1a>
 80016bc:	f880 2040 	strb.w	r2, [r0, #64]	; 0x40
 80016c0:	f7ff fa92 	bl	8000be8 <HAL_I2C_MspInit>
 80016c4:	2324      	movs	r3, #36	; 0x24
 80016c6:	f884 3041 	strb.w	r3, [r4, #65]	; 0x41
 80016ca:	6823      	ldr	r3, [r4, #0]
 80016cc:	681a      	ldr	r2, [r3, #0]
 80016ce:	f022 0201 	bic.w	r2, r2, #1
 80016d2:	601a      	str	r2, [r3, #0]
 80016d4:	6862      	ldr	r2, [r4, #4]
 80016d6:	f022 6270 	bic.w	r2, r2, #251658240	; 0xf000000
 80016da:	611a      	str	r2, [r3, #16]
 80016dc:	689a      	ldr	r2, [r3, #8]
 80016de:	f422 4200 	bic.w	r2, r2, #32768	; 0x8000
 80016e2:	609a      	str	r2, [r3, #8]
 80016e4:	e9d4 2102 	ldrd	r2, r1, [r4, #8]
 80016e8:	2901      	cmp	r1, #1
 80016ea:	d124      	bne.n	8001736 <HAL_I2C_Init+0x8c>
 80016ec:	f442 4200 	orr.w	r2, r2, #32768	; 0x8000
 80016f0:	609a      	str	r2, [r3, #8]
 80016f2:	685a      	ldr	r2, [r3, #4]
 80016f4:	f042 7200 	orr.w	r2, r2, #33554432	; 0x2000000
 80016f8:	f442 4200 	orr.w	r2, r2, #32768	; 0x8000
 80016fc:	605a      	str	r2, [r3, #4]
 80016fe:	68da      	ldr	r2, [r3, #12]
 8001700:	f422 4200 	bic.w	r2, r2, #32768	; 0x8000
 8001704:	60da      	str	r2, [r3, #12]
 8001706:	e9d4 2104 	ldrd	r2, r1, [r4, #16]
 800170a:	430a      	orrs	r2, r1
 800170c:	69a1      	ldr	r1, [r4, #24]
 800170e:	ea42 2201 	orr.w	r2, r2, r1, lsl #8
 8001712:	60da      	str	r2, [r3, #12]
 8001714:	e9d4 2107 	ldrd	r2, r1, [r4, #28]
 8001718:	430a      	orrs	r2, r1
 800171a:	601a      	str	r2, [r3, #0]
 800171c:	681a      	ldr	r2, [r3, #0]
 800171e:	f042 0201 	orr.w	r2, r2, #1
 8001722:	601a      	str	r2, [r3, #0]
 8001724:	2000      	movs	r0, #0
 8001726:	2320      	movs	r3, #32
 8001728:	6460      	str	r0, [r4, #68]	; 0x44
 800172a:	f884 3041 	strb.w	r3, [r4, #65]	; 0x41
 800172e:	6320      	str	r0, [r4, #48]	; 0x30
 8001730:	f884 0042 	strb.w	r0, [r4, #66]	; 0x42
 8001734:	bd10      	pop	{r4, pc}
 8001736:	f442 4204 	orr.w	r2, r2, #33792	; 0x8400
 800173a:	2902      	cmp	r1, #2
 800173c:	609a      	str	r2, [r3, #8]
 800173e:	bf04      	itt	eq
 8001740:	f44f 6200 	moveq.w	r2, #2048	; 0x800
 8001744:	605a      	streq	r2, [r3, #4]
 8001746:	e7d4      	b.n	80016f2 <HAL_I2C_Init+0x48>
 8001748:	2001      	movs	r0, #1
 800174a:	e7f3      	b.n	8001734 <HAL_I2C_Init+0x8a>

0800174c <HAL_I2C_Mem_Write>:
 800174c:	e92d 4ff7 	stmdb	sp!, {r0, r1, r2, r4, r5, r6, r7, r8, r9, sl, fp, lr}
 8001750:	4699      	mov	r9, r3
 8001752:	f890 3041 	ldrb.w	r3, [r0, #65]	; 0x41
 8001756:	f8bd a034 	ldrh.w	sl, [sp, #52]	; 0x34
 800175a:	f8dd 8038 	ldr.w	r8, [sp, #56]	; 0x38
 800175e:	2b20      	cmp	r3, #32
 8001760:	4604      	mov	r4, r0
 8001762:	460f      	mov	r7, r1
 8001764:	4616      	mov	r6, r2
 8001766:	f040 80c6 	bne.w	80018f6 <HAL_I2C_Mem_Write+0x1aa>
 800176a:	9b0c      	ldr	r3, [sp, #48]	; 0x30
 800176c:	b113      	cbz	r3, 8001774 <HAL_I2C_Mem_Write+0x28>
 800176e:	f1ba 0f00 	cmp.w	sl, #0
 8001772:	d106      	bne.n	8001782 <HAL_I2C_Mem_Write+0x36>
 8001774:	f44f 7300 	mov.w	r3, #512	; 0x200
 8001778:	6463      	str	r3, [r4, #68]	; 0x44
 800177a:	2001      	movs	r0, #1
 800177c:	b003      	add	sp, #12
 800177e:	e8bd 8ff0 	ldmia.w	sp!, {r4, r5, r6, r7, r8, r9, sl, fp, pc}
 8001782:	f890 3040 	ldrb.w	r3, [r0, #64]	; 0x40
 8001786:	2b01      	cmp	r3, #1
 8001788:	f000 80b5 	beq.w	80018f6 <HAL_I2C_Mem_Write+0x1aa>
 800178c:	f04f 0b01 	mov.w	fp, #1
 8001790:	f880 b040 	strb.w	fp, [r0, #64]	; 0x40
 8001794:	f7ff fbfa 	bl	8000f8c <HAL_GetTick>
 8001798:	2319      	movs	r3, #25
 800179a:	4605      	mov	r5, r0
 800179c:	9000      	str	r0, [sp, #0]
 800179e:	465a      	mov	r2, fp
 80017a0:	f44f 4100 	mov.w	r1, #32768	; 0x8000
 80017a4:	4620      	mov	r0, r4
 80017a6:	f7ff ff31 	bl	800160c <I2C_WaitOnFlagUntilTimeout>
 80017aa:	2800      	cmp	r0, #0
 80017ac:	d1e5      	bne.n	800177a <HAL_I2C_Mem_Write+0x2e>
 80017ae:	2321      	movs	r3, #33	; 0x21
 80017b0:	f884 3041 	strb.w	r3, [r4, #65]	; 0x41
 80017b4:	2340      	movs	r3, #64	; 0x40
 80017b6:	f884 3042 	strb.w	r3, [r4, #66]	; 0x42
 80017ba:	9b0c      	ldr	r3, [sp, #48]	; 0x30
 80017bc:	6263      	str	r3, [r4, #36]	; 0x24
 80017be:	4b4f      	ldr	r3, [pc, #316]	; (80018fc <HAL_I2C_Mem_Write+0x1b0>)
 80017c0:	6460      	str	r0, [r4, #68]	; 0x44
 80017c2:	6360      	str	r0, [r4, #52]	; 0x34
 80017c4:	9300      	str	r3, [sp, #0]
 80017c6:	fa5f f289 	uxtb.w	r2, r9
 80017ca:	4639      	mov	r1, r7
 80017cc:	4620      	mov	r0, r4
 80017ce:	f8a4 a02a 	strh.w	sl, [r4, #42]	; 0x2a
 80017d2:	f04f 7380 	mov.w	r3, #16777216	; 0x1000000
 80017d6:	f7ff fe51 	bl	800147c <I2C_TransferConfig>
 80017da:	462a      	mov	r2, r5
 80017dc:	4641      	mov	r1, r8
 80017de:	4620      	mov	r0, r4
 80017e0:	f7ff feed 	bl	80015be <I2C_WaitOnTXISFlagUntilTimeout>
 80017e4:	bb18      	cbnz	r0, 800182e <HAL_I2C_Mem_Write+0xe2>
 80017e6:	f1b9 0f01 	cmp.w	r9, #1
 80017ea:	6823      	ldr	r3, [r4, #0]
 80017ec:	d115      	bne.n	800181a <HAL_I2C_Mem_Write+0xce>
 80017ee:	b2f6      	uxtb	r6, r6
 80017f0:	629e      	str	r6, [r3, #40]	; 0x28
 80017f2:	2200      	movs	r2, #0
 80017f4:	9500      	str	r5, [sp, #0]
 80017f6:	4643      	mov	r3, r8
 80017f8:	2180      	movs	r1, #128	; 0x80
 80017fa:	4620      	mov	r0, r4
 80017fc:	f7ff ff06 	bl	800160c <I2C_WaitOnFlagUntilTimeout>
 8001800:	b9a8      	cbnz	r0, 800182e <HAL_I2C_Mem_Write+0xe2>
 8001802:	8d63      	ldrh	r3, [r4, #42]	; 0x2a
 8001804:	b29b      	uxth	r3, r3
 8001806:	2bff      	cmp	r3, #255	; 0xff
 8001808:	d815      	bhi.n	8001836 <HAL_I2C_Mem_Write+0xea>
 800180a:	8d62      	ldrh	r2, [r4, #42]	; 0x2a
 800180c:	9000      	str	r0, [sp, #0]
 800180e:	b292      	uxth	r2, r2
 8001810:	8522      	strh	r2, [r4, #40]	; 0x28
 8001812:	f04f 7300 	mov.w	r3, #33554432	; 0x2000000
 8001816:	b2d2      	uxtb	r2, r2
 8001818:	e012      	b.n	8001840 <HAL_I2C_Mem_Write+0xf4>
 800181a:	0a32      	lsrs	r2, r6, #8
 800181c:	629a      	str	r2, [r3, #40]	; 0x28
 800181e:	4641      	mov	r1, r8
 8001820:	462a      	mov	r2, r5
 8001822:	4620      	mov	r0, r4
 8001824:	f7ff fecb 	bl	80015be <I2C_WaitOnTXISFlagUntilTimeout>
 8001828:	b908      	cbnz	r0, 800182e <HAL_I2C_Mem_Write+0xe2>
 800182a:	6823      	ldr	r3, [r4, #0]
 800182c:	e7df      	b.n	80017ee <HAL_I2C_Mem_Write+0xa2>
 800182e:	2300      	movs	r3, #0
 8001830:	f884 3040 	strb.w	r3, [r4, #64]	; 0x40
 8001834:	e7a1      	b.n	800177a <HAL_I2C_Mem_Write+0x2e>
 8001836:	22ff      	movs	r2, #255	; 0xff
 8001838:	8522      	strh	r2, [r4, #40]	; 0x28
 800183a:	9000      	str	r0, [sp, #0]
 800183c:	f04f 7380 	mov.w	r3, #16777216	; 0x1000000
 8001840:	4639      	mov	r1, r7
 8001842:	4620      	mov	r0, r4
 8001844:	f7ff fe1a 	bl	800147c <I2C_TransferConfig>
 8001848:	462a      	mov	r2, r5
 800184a:	4641      	mov	r1, r8
 800184c:	4620      	mov	r0, r4
 800184e:	f7ff feb6 	bl	80015be <I2C_WaitOnTXISFlagUntilTimeout>
 8001852:	2800      	cmp	r0, #0
 8001854:	d191      	bne.n	800177a <HAL_I2C_Mem_Write+0x2e>
 8001856:	6a63      	ldr	r3, [r4, #36]	; 0x24
 8001858:	6822      	ldr	r2, [r4, #0]
 800185a:	f813 1b01 	ldrb.w	r1, [r3], #1
 800185e:	6291      	str	r1, [r2, #40]	; 0x28
 8001860:	6263      	str	r3, [r4, #36]	; 0x24
 8001862:	8d63      	ldrh	r3, [r4, #42]	; 0x2a
 8001864:	8d22      	ldrh	r2, [r4, #40]	; 0x28
 8001866:	3b01      	subs	r3, #1
 8001868:	b29b      	uxth	r3, r3
 800186a:	8563      	strh	r3, [r4, #42]	; 0x2a
 800186c:	8d63      	ldrh	r3, [r4, #42]	; 0x2a
 800186e:	3a01      	subs	r2, #1
 8001870:	b292      	uxth	r2, r2
 8001872:	b29b      	uxth	r3, r3
 8001874:	8522      	strh	r2, [r4, #40]	; 0x28
 8001876:	b1b3      	cbz	r3, 80018a6 <HAL_I2C_Mem_Write+0x15a>
 8001878:	b9aa      	cbnz	r2, 80018a6 <HAL_I2C_Mem_Write+0x15a>
 800187a:	9500      	str	r5, [sp, #0]
 800187c:	4643      	mov	r3, r8
 800187e:	2180      	movs	r1, #128	; 0x80
 8001880:	4620      	mov	r0, r4
 8001882:	f7ff fec3 	bl	800160c <I2C_WaitOnFlagUntilTimeout>
 8001886:	2800      	cmp	r0, #0
 8001888:	f47f af77 	bne.w	800177a <HAL_I2C_Mem_Write+0x2e>
 800188c:	8d63      	ldrh	r3, [r4, #42]	; 0x2a
 800188e:	b29b      	uxth	r3, r3
 8001890:	2bff      	cmp	r3, #255	; 0xff
 8001892:	d928      	bls.n	80018e6 <HAL_I2C_Mem_Write+0x19a>
 8001894:	22ff      	movs	r2, #255	; 0xff
 8001896:	8522      	strh	r2, [r4, #40]	; 0x28
 8001898:	9000      	str	r0, [sp, #0]
 800189a:	f04f 7380 	mov.w	r3, #16777216	; 0x1000000
 800189e:	4639      	mov	r1, r7
 80018a0:	4620      	mov	r0, r4
 80018a2:	f7ff fdeb 	bl	800147c <I2C_TransferConfig>
 80018a6:	8d63      	ldrh	r3, [r4, #42]	; 0x2a
 80018a8:	b29b      	uxth	r3, r3
 80018aa:	2b00      	cmp	r3, #0
 80018ac:	d1cc      	bne.n	8001848 <HAL_I2C_Mem_Write+0xfc>
 80018ae:	462a      	mov	r2, r5
 80018b0:	4641      	mov	r1, r8
 80018b2:	4620      	mov	r0, r4
 80018b4:	f7ff fed4 	bl	8001660 <I2C_WaitOnSTOPFlagUntilTimeout>
 80018b8:	2800      	cmp	r0, #0
 80018ba:	f47f af5e 	bne.w	800177a <HAL_I2C_Mem_Write+0x2e>
 80018be:	6823      	ldr	r3, [r4, #0]
 80018c0:	2120      	movs	r1, #32
 80018c2:	61d9      	str	r1, [r3, #28]
 80018c4:	685a      	ldr	r2, [r3, #4]
 80018c6:	f022 72ff 	bic.w	r2, r2, #33423360	; 0x1fe0000
 80018ca:	f422 328b 	bic.w	r2, r2, #71168	; 0x11600
 80018ce:	f422 72ff 	bic.w	r2, r2, #510	; 0x1fe
 80018d2:	f022 0201 	bic.w	r2, r2, #1
 80018d6:	605a      	str	r2, [r3, #4]
 80018d8:	f884 1041 	strb.w	r1, [r4, #65]	; 0x41
 80018dc:	f884 0040 	strb.w	r0, [r4, #64]	; 0x40
 80018e0:	f884 0042 	strb.w	r0, [r4, #66]	; 0x42
 80018e4:	e74a      	b.n	800177c <HAL_I2C_Mem_Write+0x30>
 80018e6:	8d62      	ldrh	r2, [r4, #42]	; 0x2a
 80018e8:	9000      	str	r0, [sp, #0]
 80018ea:	b292      	uxth	r2, r2
 80018ec:	8522      	strh	r2, [r4, #40]	; 0x28
 80018ee:	f04f 7300 	mov.w	r3, #33554432	; 0x2000000
 80018f2:	b2d2      	uxtb	r2, r2
 80018f4:	e7d3      	b.n	800189e <HAL_I2C_Mem_Write+0x152>
 80018f6:	2002      	movs	r0, #2
 80018f8:	e740      	b.n	800177c <HAL_I2C_Mem_Write+0x30>
 80018fa:	bf00      	nop
 80018fc:	80002000 	.word	0x80002000

08001900 <HAL_I2C_Mem_Read>:
 8001900:	e92d 4ff7 	stmdb	sp!, {r0, r1, r2, r4, r5, r6, r7, r8, r9, sl, fp, lr}
 8001904:	4699      	mov	r9, r3
 8001906:	f890 3041 	ldrb.w	r3, [r0, #65]	; 0x41
 800190a:	f8bd a034 	ldrh.w	sl, [sp, #52]	; 0x34
 800190e:	f8dd 8038 	ldr.w	r8, [sp, #56]	; 0x38
 8001912:	2b20      	cmp	r3, #32
 8001914:	4604      	mov	r4, r0
 8001916:	460f      	mov	r7, r1
 8001918:	4616      	mov	r6, r2
 800191a:	f040 80c9 	bne.w	8001ab0 <HAL_I2C_Mem_Read+0x1b0>
 800191e:	9b0c      	ldr	r3, [sp, #48]	; 0x30
 8001920:	b113      	cbz	r3, 8001928 <HAL_I2C_Mem_Read+0x28>
 8001922:	f1ba 0f00 	cmp.w	sl, #0
 8001926:	d106      	bne.n	8001936 <HAL_I2C_Mem_Read+0x36>
 8001928:	f44f 7300 	mov.w	r3, #512	; 0x200
 800192c:	6463      	str	r3, [r4, #68]	; 0x44
 800192e:	2001      	movs	r0, #1
 8001930:	b003      	add	sp, #12
 8001932:	e8bd 8ff0 	ldmia.w	sp!, {r4, r5, r6, r7, r8, r9, sl, fp, pc}
 8001936:	f890 3040 	ldrb.w	r3, [r0, #64]	; 0x40
 800193a:	2b01      	cmp	r3, #1
 800193c:	f000 80b8 	beq.w	8001ab0 <HAL_I2C_Mem_Read+0x1b0>
 8001940:	f04f 0b01 	mov.w	fp, #1
 8001944:	f880 b040 	strb.w	fp, [r0, #64]	; 0x40
 8001948:	f7ff fb20 	bl	8000f8c <HAL_GetTick>
 800194c:	2319      	movs	r3, #25
 800194e:	4605      	mov	r5, r0
 8001950:	9000      	str	r0, [sp, #0]
 8001952:	465a      	mov	r2, fp
 8001954:	f44f 4100 	mov.w	r1, #32768	; 0x8000
 8001958:	4620      	mov	r0, r4
 800195a:	f7ff fe57 	bl	800160c <I2C_WaitOnFlagUntilTimeout>
 800195e:	2800      	cmp	r0, #0
 8001960:	d1e5      	bne.n	800192e <HAL_I2C_Mem_Read+0x2e>
 8001962:	2322      	movs	r3, #34	; 0x22
 8001964:	f884 3041 	strb.w	r3, [r4, #65]	; 0x41
 8001968:	2340      	movs	r3, #64	; 0x40
 800196a:	f884 3042 	strb.w	r3, [r4, #66]	; 0x42
 800196e:	9b0c      	ldr	r3, [sp, #48]	; 0x30
 8001970:	6263      	str	r3, [r4, #36]	; 0x24
 8001972:	4b50      	ldr	r3, [pc, #320]	; (8001ab4 <HAL_I2C_Mem_Read+0x1b4>)
 8001974:	6460      	str	r0, [r4, #68]	; 0x44
 8001976:	6360      	str	r0, [r4, #52]	; 0x34
 8001978:	9300      	str	r3, [sp, #0]
 800197a:	fa5f f289 	uxtb.w	r2, r9
 800197e:	4603      	mov	r3, r0
 8001980:	4639      	mov	r1, r7
 8001982:	4620      	mov	r0, r4
 8001984:	f8a4 a02a 	strh.w	sl, [r4, #42]	; 0x2a
 8001988:	f7ff fd78 	bl	800147c <I2C_TransferConfig>
 800198c:	462a      	mov	r2, r5
 800198e:	4641      	mov	r1, r8
 8001990:	4620      	mov	r0, r4
 8001992:	f7ff fe14 	bl	80015be <I2C_WaitOnTXISFlagUntilTimeout>
 8001996:	bb20      	cbnz	r0, 80019e2 <HAL_I2C_Mem_Read+0xe2>
 8001998:	f1b9 0f01 	cmp.w	r9, #1
 800199c:	6823      	ldr	r3, [r4, #0]
 800199e:	d116      	bne.n	80019ce <HAL_I2C_Mem_Read+0xce>
 80019a0:	b2f6      	uxtb	r6, r6
 80019a2:	629e      	str	r6, [r3, #40]	; 0x28
 80019a4:	2200      	movs	r2, #0
 80019a6:	9500      	str	r5, [sp, #0]
 80019a8:	4643      	mov	r3, r8
 80019aa:	2140      	movs	r1, #64	; 0x40
 80019ac:	4620      	mov	r0, r4
 80019ae:	f7ff fe2d 	bl	800160c <I2C_WaitOnFlagUntilTimeout>
 80019b2:	b9b0      	cbnz	r0, 80019e2 <HAL_I2C_Mem_Read+0xe2>
 80019b4:	8d63      	ldrh	r3, [r4, #42]	; 0x2a
 80019b6:	b29b      	uxth	r3, r3
 80019b8:	2bff      	cmp	r3, #255	; 0xff
 80019ba:	4b3f      	ldr	r3, [pc, #252]	; (8001ab8 <HAL_I2C_Mem_Read+0x1b8>)
 80019bc:	d815      	bhi.n	80019ea <HAL_I2C_Mem_Read+0xea>
 80019be:	8d62      	ldrh	r2, [r4, #42]	; 0x2a
 80019c0:	9300      	str	r3, [sp, #0]
 80019c2:	b292      	uxth	r2, r2
 80019c4:	8522      	strh	r2, [r4, #40]	; 0x28
 80019c6:	f04f 7300 	mov.w	r3, #33554432	; 0x2000000
 80019ca:	b2d2      	uxtb	r2, r2
 80019cc:	e012      	b.n	80019f4 <HAL_I2C_Mem_Read+0xf4>
 80019ce:	0a32      	lsrs	r2, r6, #8
 80019d0:	629a      	str	r2, [r3, #40]	; 0x28
 80019d2:	4641      	mov	r1, r8
 80019d4:	462a      	mov	r2, r5
 80019d6:	4620      	mov	r0, r4
 80019d8:	f7ff fdf1 	bl	80015be <I2C_WaitOnTXISFlagUntilTimeout>
 80019dc:	b908      	cbnz	r0, 80019e2 <HAL_I2C_Mem_Read+0xe2>
 80019de:	6823      	ldr	r3, [r4, #0]
 80019e0:	e7de      	b.n	80019a0 <HAL_I2C_Mem_Read+0xa0>
 80019e2:	2300      	movs	r3, #0
 80019e4:	f884 3040 	strb.w	r3, [r4, #64]	; 0x40
 80019e8:	e7a1      	b.n	800192e <HAL_I2C_Mem_Read+0x2e>
 80019ea:	22ff      	movs	r2, #255	; 0xff
 80019ec:	9300      	str	r3, [sp, #0]
 80019ee:	8522      	strh	r2, [r4, #40]	; 0x28
 80019f0:	f04f 7380 	mov.w	r3, #16777216	; 0x1000000
 80019f4:	4639      	mov	r1, r7
 80019f6:	4620      	mov	r0, r4
 80019f8:	f7ff fd40 	bl	800147c <I2C_TransferConfig>
 80019fc:	9500      	str	r5, [sp, #0]
 80019fe:	4643      	mov	r3, r8
 8001a00:	2200      	movs	r2, #0
 8001a02:	2104      	movs	r1, #4
 8001a04:	4620      	mov	r0, r4
 8001a06:	f7ff fe01 	bl	800160c <I2C_WaitOnFlagUntilTimeout>
 8001a0a:	2800      	cmp	r0, #0
 8001a0c:	d18f      	bne.n	800192e <HAL_I2C_Mem_Read+0x2e>
 8001a0e:	6823      	ldr	r3, [r4, #0]
 8001a10:	6a5a      	ldr	r2, [r3, #36]	; 0x24
 8001a12:	6a63      	ldr	r3, [r4, #36]	; 0x24
 8001a14:	701a      	strb	r2, [r3, #0]
 8001a16:	6a63      	ldr	r3, [r4, #36]	; 0x24
 8001a18:	8d22      	ldrh	r2, [r4, #40]	; 0x28
 8001a1a:	3301      	adds	r3, #1
 8001a1c:	6263      	str	r3, [r4, #36]	; 0x24
 8001a1e:	8d63      	ldrh	r3, [r4, #42]	; 0x2a
 8001a20:	3b01      	subs	r3, #1
 8001a22:	b29b      	uxth	r3, r3
 8001a24:	8563      	strh	r3, [r4, #42]	; 0x2a
 8001a26:	8d63      	ldrh	r3, [r4, #42]	; 0x2a
 8001a28:	3a01      	subs	r2, #1
 8001a2a:	b292      	uxth	r2, r2
 8001a2c:	b29b      	uxth	r3, r3
 8001a2e:	8522      	strh	r2, [r4, #40]	; 0x28
 8001a30:	b1b3      	cbz	r3, 8001a60 <HAL_I2C_Mem_Read+0x160>
 8001a32:	b9aa      	cbnz	r2, 8001a60 <HAL_I2C_Mem_Read+0x160>
 8001a34:	9500      	str	r5, [sp, #0]
 8001a36:	4643      	mov	r3, r8
 8001a38:	2180      	movs	r1, #128	; 0x80
 8001a3a:	4620      	mov	r0, r4
 8001a3c:	f7ff fde6 	bl	800160c <I2C_WaitOnFlagUntilTimeout>
 8001a40:	2800      	cmp	r0, #0
 8001a42:	f47f af74 	bne.w	800192e <HAL_I2C_Mem_Read+0x2e>
 8001a46:	8d63      	ldrh	r3, [r4, #42]	; 0x2a
 8001a48:	b29b      	uxth	r3, r3
 8001a4a:	2bff      	cmp	r3, #255	; 0xff
 8001a4c:	d928      	bls.n	8001aa0 <HAL_I2C_Mem_Read+0x1a0>
 8001a4e:	22ff      	movs	r2, #255	; 0xff
 8001a50:	8522      	strh	r2, [r4, #40]	; 0x28
 8001a52:	9000      	str	r0, [sp, #0]
 8001a54:	f04f 7380 	mov.w	r3, #16777216	; 0x1000000
 8001a58:	4639      	mov	r1, r7
 8001a5a:	4620      	mov	r0, r4
 8001a5c:	f7ff fd0e 	bl	800147c <I2C_TransferConfig>
 8001a60:	8d63      	ldrh	r3, [r4, #42]	; 0x2a
 8001a62:	b29b      	uxth	r3, r3
 8001a64:	2b00      	cmp	r3, #0
 8001a66:	d1c9      	bne.n	80019fc <HAL_I2C_Mem_Read+0xfc>
 8001a68:	462a      	mov	r2, r5
 8001a6a:	4641      	mov	r1, r8
 8001a6c:	4620      	mov	r0, r4
 8001a6e:	f7ff fdf7 	bl	8001660 <I2C_WaitOnSTOPFlagUntilTimeout>
 8001a72:	2800      	cmp	r0, #0
 8001a74:	f47f af5b 	bne.w	800192e <HAL_I2C_Mem_Read+0x2e>
 8001a78:	6823      	ldr	r3, [r4, #0]
 8001a7a:	2120      	movs	r1, #32
 8001a7c:	61d9      	str	r1, [r3, #28]
 8001a7e:	685a      	ldr	r2, [r3, #4]
 8001a80:	f022 72ff 	bic.w	r2, r2, #33423360	; 0x1fe0000
 8001a84:	f422 328b 	bic.w	r2, r2, #71168	; 0x11600
 8001a88:	f422 72ff 	bic.w	r2, r2, #510	; 0x1fe
 8001a8c:	f022 0201 	bic.w	r2, r2, #1
 8001a90:	605a      	str	r2, [r3, #4]
 8001a92:	f884 1041 	strb.w	r1, [r4, #65]	; 0x41
 8001a96:	f884 0040 	strb.w	r0, [r4, #64]	; 0x40
 8001a9a:	f884 0042 	strb.w	r0, [r4, #66]	; 0x42
 8001a9e:	e747      	b.n	8001930 <HAL_I2C_Mem_Read+0x30>
 8001aa0:	8d62      	ldrh	r2, [r4, #42]	; 0x2a
 8001aa2:	9000      	str	r0, [sp, #0]
 8001aa4:	b292      	uxth	r2, r2
 8001aa6:	8522      	strh	r2, [r4, #40]	; 0x28
 8001aa8:	f04f 7300 	mov.w	r3, #33554432	; 0x2000000
 8001aac:	b2d2      	uxtb	r2, r2
 8001aae:	e7d3      	b.n	8001a58 <HAL_I2C_Mem_Read+0x158>
 8001ab0:	2002      	movs	r0, #2
 8001ab2:	e73d      	b.n	8001930 <HAL_I2C_Mem_Read+0x30>
 8001ab4:	80002000 	.word	0x80002000
 8001ab8:	80002400 	.word	0x80002400

08001abc <HAL_I2CEx_ConfigAnalogFilter>:
 8001abc:	b510      	push	{r4, lr}
 8001abe:	f890 3041 	ldrb.w	r3, [r0, #65]	; 0x41
 8001ac2:	2b20      	cmp	r3, #32
 8001ac4:	b2dc      	uxtb	r4, r3
 8001ac6:	d11d      	bne.n	8001b04 <HAL_I2CEx_ConfigAnalogFilter+0x48>
 8001ac8:	f890 3040 	ldrb.w	r3, [r0, #64]	; 0x40
 8001acc:	2b01      	cmp	r3, #1
 8001ace:	d019      	beq.n	8001b04 <HAL_I2CEx_ConfigAnalogFilter+0x48>
 8001ad0:	2324      	movs	r3, #36	; 0x24
 8001ad2:	f880 3041 	strb.w	r3, [r0, #65]	; 0x41
 8001ad6:	6803      	ldr	r3, [r0, #0]
 8001ad8:	681a      	ldr	r2, [r3, #0]
 8001ada:	f022 0201 	bic.w	r2, r2, #1
 8001ade:	601a      	str	r2, [r3, #0]
 8001ae0:	681a      	ldr	r2, [r3, #0]
 8001ae2:	f422 5280 	bic.w	r2, r2, #4096	; 0x1000
 8001ae6:	601a      	str	r2, [r3, #0]
 8001ae8:	681a      	ldr	r2, [r3, #0]
 8001aea:	4311      	orrs	r1, r2
 8001aec:	6019      	str	r1, [r3, #0]
 8001aee:	681a      	ldr	r2, [r3, #0]
 8001af0:	f042 0201 	orr.w	r2, r2, #1
 8001af4:	601a      	str	r2, [r3, #0]
 8001af6:	2300      	movs	r3, #0
 8001af8:	f880 4041 	strb.w	r4, [r0, #65]	; 0x41
 8001afc:	f880 3040 	strb.w	r3, [r0, #64]	; 0x40
 8001b00:	4618      	mov	r0, r3
 8001b02:	bd10      	pop	{r4, pc}
 8001b04:	2002      	movs	r0, #2
 8001b06:	e7fc      	b.n	8001b02 <HAL_I2CEx_ConfigAnalogFilter+0x46>

08001b08 <HAL_I2CEx_ConfigDigitalFilter>:
 8001b08:	b510      	push	{r4, lr}
 8001b0a:	f890 3041 	ldrb.w	r3, [r0, #65]	; 0x41
 8001b0e:	2b20      	cmp	r3, #32
 8001b10:	b2dc      	uxtb	r4, r3
 8001b12:	d11c      	bne.n	8001b4e <HAL_I2CEx_ConfigDigitalFilter+0x46>
 8001b14:	f890 3040 	ldrb.w	r3, [r0, #64]	; 0x40
 8001b18:	2b01      	cmp	r3, #1
 8001b1a:	d018      	beq.n	8001b4e <HAL_I2CEx_ConfigDigitalFilter+0x46>
 8001b1c:	2324      	movs	r3, #36	; 0x24
 8001b1e:	f880 3041 	strb.w	r3, [r0, #65]	; 0x41
 8001b22:	6803      	ldr	r3, [r0, #0]
 8001b24:	681a      	ldr	r2, [r3, #0]
 8001b26:	f022 0201 	bic.w	r2, r2, #1
 8001b2a:	601a      	str	r2, [r3, #0]
 8001b2c:	681a      	ldr	r2, [r3, #0]
 8001b2e:	f422 6270 	bic.w	r2, r2, #3840	; 0xf00
 8001b32:	ea42 2101 	orr.w	r1, r2, r1, lsl #8
 8001b36:	6019      	str	r1, [r3, #0]
 8001b38:	681a      	ldr	r2, [r3, #0]
 8001b3a:	f042 0201 	orr.w	r2, r2, #1
 8001b3e:	601a      	str	r2, [r3, #0]
 8001b40:	2300      	movs	r3, #0
 8001b42:	f880 4041 	strb.w	r4, [r0, #65]	; 0x41
 8001b46:	f880 3040 	strb.w	r3, [r0, #64]	; 0x40
 8001b4a:	4618      	mov	r0, r3
 8001b4c:	bd10      	pop	{r4, pc}
 8001b4e:	2002      	movs	r0, #2
 8001b50:	e7fc      	b.n	8001b4c <HAL_I2CEx_ConfigDigitalFilter+0x44>
	...

08001b54 <HAL_PWREx_GetVoltageRange>:
 8001b54:	4b02      	ldr	r3, [pc, #8]	; (8001b60 <HAL_PWREx_GetVoltageRange+0xc>)
 8001b56:	6818      	ldr	r0, [r3, #0]
 8001b58:	f400 60c0 	and.w	r0, r0, #1536	; 0x600
 8001b5c:	4770      	bx	lr
 8001b5e:	bf00      	nop
 8001b60:	40007000 	.word	0x40007000

08001b64 <HAL_PWREx_ControlVoltageScaling>:
 8001b64:	4a17      	ldr	r2, [pc, #92]	; (8001bc4 <HAL_PWREx_ControlVoltageScaling+0x60>)
 8001b66:	6813      	ldr	r3, [r2, #0]
 8001b68:	f5b0 7f00 	cmp.w	r0, #512	; 0x200
 8001b6c:	f403 63c0 	and.w	r3, r3, #1536	; 0x600
 8001b70:	d11d      	bne.n	8001bae <HAL_PWREx_ControlVoltageScaling+0x4a>
 8001b72:	f5b3 7f00 	cmp.w	r3, #512	; 0x200
 8001b76:	d101      	bne.n	8001b7c <HAL_PWREx_ControlVoltageScaling+0x18>
 8001b78:	2000      	movs	r0, #0
 8001b7a:	4770      	bx	lr
 8001b7c:	6813      	ldr	r3, [r2, #0]
 8001b7e:	f423 63c0 	bic.w	r3, r3, #1536	; 0x600
 8001b82:	f443 7300 	orr.w	r3, r3, #512	; 0x200
 8001b86:	6013      	str	r3, [r2, #0]
 8001b88:	4b0f      	ldr	r3, [pc, #60]	; (8001bc8 <HAL_PWREx_ControlVoltageScaling+0x64>)
 8001b8a:	681b      	ldr	r3, [r3, #0]
 8001b8c:	2132      	movs	r1, #50	; 0x32
 8001b8e:	434b      	muls	r3, r1
 8001b90:	490e      	ldr	r1, [pc, #56]	; (8001bcc <HAL_PWREx_ControlVoltageScaling+0x68>)
 8001b92:	fbb3 f3f1 	udiv	r3, r3, r1
 8001b96:	3301      	adds	r3, #1
 8001b98:	6951      	ldr	r1, [r2, #20]
 8001b9a:	0549      	lsls	r1, r1, #21
 8001b9c:	d500      	bpl.n	8001ba0 <HAL_PWREx_ControlVoltageScaling+0x3c>
 8001b9e:	b923      	cbnz	r3, 8001baa <HAL_PWREx_ControlVoltageScaling+0x46>
 8001ba0:	6953      	ldr	r3, [r2, #20]
 8001ba2:	055b      	lsls	r3, r3, #21
 8001ba4:	d5e8      	bpl.n	8001b78 <HAL_PWREx_ControlVoltageScaling+0x14>
 8001ba6:	2003      	movs	r0, #3
 8001ba8:	4770      	bx	lr
 8001baa:	3b01      	subs	r3, #1
 8001bac:	e7f4      	b.n	8001b98 <HAL_PWREx_ControlVoltageScaling+0x34>
 8001bae:	f5b3 6f80 	cmp.w	r3, #1024	; 0x400
 8001bb2:	bf1f      	itttt	ne
 8001bb4:	6813      	ldrne	r3, [r2, #0]
 8001bb6:	f423 63c0 	bicne.w	r3, r3, #1536	; 0x600
 8001bba:	f443 6380 	orrne.w	r3, r3, #1024	; 0x400
 8001bbe:	6013      	strne	r3, [r2, #0]
 8001bc0:	e7da      	b.n	8001b78 <HAL_PWREx_ControlVoltageScaling+0x14>
 8001bc2:	bf00      	nop
 8001bc4:	40007000 	.word	0x40007000
 8001bc8:	20000000 	.word	0x20000000
 8001bcc:	000f4240 	.word	0x000f4240

08001bd0 <RCC_SetFlashLatencyFromMSIRange>:
 8001bd0:	b537      	push	{r0, r1, r2, r4, r5, lr}
 8001bd2:	4d1e      	ldr	r5, [pc, #120]	; (8001c4c <RCC_SetFlashLatencyFromMSIRange+0x7c>)
 8001bd4:	6dab      	ldr	r3, [r5, #88]	; 0x58
 8001bd6:	00da      	lsls	r2, r3, #3
 8001bd8:	4604      	mov	r4, r0
 8001bda:	d518      	bpl.n	8001c0e <RCC_SetFlashLatencyFromMSIRange+0x3e>
 8001bdc:	f7ff ffba 	bl	8001b54 <HAL_PWREx_GetVoltageRange>
 8001be0:	f5b0 7f00 	cmp.w	r0, #512	; 0x200
 8001be4:	d123      	bne.n	8001c2e <RCC_SetFlashLatencyFromMSIRange+0x5e>
 8001be6:	2c80      	cmp	r4, #128	; 0x80
 8001be8:	d929      	bls.n	8001c3e <RCC_SetFlashLatencyFromMSIRange+0x6e>
 8001bea:	2ca0      	cmp	r4, #160	; 0xa0
 8001bec:	bf8c      	ite	hi
 8001bee:	2002      	movhi	r0, #2
 8001bf0:	2001      	movls	r0, #1
 8001bf2:	4a17      	ldr	r2, [pc, #92]	; (8001c50 <RCC_SetFlashLatencyFromMSIRange+0x80>)
 8001bf4:	6813      	ldr	r3, [r2, #0]
 8001bf6:	f023 0307 	bic.w	r3, r3, #7
 8001bfa:	4303      	orrs	r3, r0
 8001bfc:	6013      	str	r3, [r2, #0]
 8001bfe:	6813      	ldr	r3, [r2, #0]
 8001c00:	f003 0307 	and.w	r3, r3, #7
 8001c04:	1a18      	subs	r0, r3, r0
 8001c06:	bf18      	it	ne
 8001c08:	2001      	movne	r0, #1
 8001c0a:	b003      	add	sp, #12
 8001c0c:	bd30      	pop	{r4, r5, pc}
 8001c0e:	6dab      	ldr	r3, [r5, #88]	; 0x58
 8001c10:	f043 5380 	orr.w	r3, r3, #268435456	; 0x10000000
 8001c14:	65ab      	str	r3, [r5, #88]	; 0x58
 8001c16:	6dab      	ldr	r3, [r5, #88]	; 0x58
 8001c18:	f003 5380 	and.w	r3, r3, #268435456	; 0x10000000
 8001c1c:	9301      	str	r3, [sp, #4]
 8001c1e:	9b01      	ldr	r3, [sp, #4]
 8001c20:	f7ff ff98 	bl	8001b54 <HAL_PWREx_GetVoltageRange>
 8001c24:	6dab      	ldr	r3, [r5, #88]	; 0x58
 8001c26:	f023 5380 	bic.w	r3, r3, #268435456	; 0x10000000
 8001c2a:	65ab      	str	r3, [r5, #88]	; 0x58
 8001c2c:	e7d8      	b.n	8001be0 <RCC_SetFlashLatencyFromMSIRange+0x10>
 8001c2e:	2c80      	cmp	r4, #128	; 0x80
 8001c30:	d807      	bhi.n	8001c42 <RCC_SetFlashLatencyFromMSIRange+0x72>
 8001c32:	d008      	beq.n	8001c46 <RCC_SetFlashLatencyFromMSIRange+0x76>
 8001c34:	f1a4 0370 	sub.w	r3, r4, #112	; 0x70
 8001c38:	4258      	negs	r0, r3
 8001c3a:	4158      	adcs	r0, r3
 8001c3c:	e7d9      	b.n	8001bf2 <RCC_SetFlashLatencyFromMSIRange+0x22>
 8001c3e:	2000      	movs	r0, #0
 8001c40:	e7d7      	b.n	8001bf2 <RCC_SetFlashLatencyFromMSIRange+0x22>
 8001c42:	2003      	movs	r0, #3
 8001c44:	e7d5      	b.n	8001bf2 <RCC_SetFlashLatencyFromMSIRange+0x22>
 8001c46:	2002      	movs	r0, #2
 8001c48:	e7d3      	b.n	8001bf2 <RCC_SetFlashLatencyFromMSIRange+0x22>
 8001c4a:	bf00      	nop
 8001c4c:	40021000 	.word	0x40021000
 8001c50:	40022000 	.word	0x40022000

08001c54 <HAL_RCC_GetSysClockFreq>:
 8001c54:	4b22      	ldr	r3, [pc, #136]	; (8001ce0 <HAL_RCC_GetSysClockFreq+0x8c>)
 8001c56:	689a      	ldr	r2, [r3, #8]
 8001c58:	68d9      	ldr	r1, [r3, #12]
 8001c5a:	f012 020c 	ands.w	r2, r2, #12
 8001c5e:	d005      	beq.n	8001c6c <HAL_RCC_GetSysClockFreq+0x18>
 8001c60:	2a0c      	cmp	r2, #12
 8001c62:	d115      	bne.n	8001c90 <HAL_RCC_GetSysClockFreq+0x3c>
 8001c64:	f001 0103 	and.w	r1, r1, #3
 8001c68:	2901      	cmp	r1, #1
 8001c6a:	d118      	bne.n	8001c9e <HAL_RCC_GetSysClockFreq+0x4a>
 8001c6c:	6819      	ldr	r1, [r3, #0]
 8001c6e:	481d      	ldr	r0, [pc, #116]	; (8001ce4 <HAL_RCC_GetSysClockFreq+0x90>)
 8001c70:	0709      	lsls	r1, r1, #28
 8001c72:	bf55      	itete	pl
 8001c74:	f8d3 1094 	ldrpl.w	r1, [r3, #148]	; 0x94
 8001c78:	6819      	ldrmi	r1, [r3, #0]
 8001c7a:	f3c1 2103 	ubfxpl	r1, r1, #8, #4
 8001c7e:	f3c1 1103 	ubfxmi	r1, r1, #4, #4
 8001c82:	f850 0021 	ldr.w	r0, [r0, r1, lsl #2]
 8001c86:	b34a      	cbz	r2, 8001cdc <HAL_RCC_GetSysClockFreq+0x88>
 8001c88:	2a0c      	cmp	r2, #12
 8001c8a:	d009      	beq.n	8001ca0 <HAL_RCC_GetSysClockFreq+0x4c>
 8001c8c:	2000      	movs	r0, #0
 8001c8e:	4770      	bx	lr
 8001c90:	2a04      	cmp	r2, #4
 8001c92:	d022      	beq.n	8001cda <HAL_RCC_GetSysClockFreq+0x86>
 8001c94:	2a08      	cmp	r2, #8
 8001c96:	4814      	ldr	r0, [pc, #80]	; (8001ce8 <HAL_RCC_GetSysClockFreq+0x94>)
 8001c98:	bf18      	it	ne
 8001c9a:	2000      	movne	r0, #0
 8001c9c:	4770      	bx	lr
 8001c9e:	2000      	movs	r0, #0
 8001ca0:	68da      	ldr	r2, [r3, #12]
 8001ca2:	f002 0203 	and.w	r2, r2, #3
 8001ca6:	2a02      	cmp	r2, #2
 8001ca8:	d015      	beq.n	8001cd6 <HAL_RCC_GetSysClockFreq+0x82>
 8001caa:	490f      	ldr	r1, [pc, #60]	; (8001ce8 <HAL_RCC_GetSysClockFreq+0x94>)
 8001cac:	2a03      	cmp	r2, #3
 8001cae:	bf08      	it	eq
 8001cb0:	4608      	moveq	r0, r1
 8001cb2:	68d9      	ldr	r1, [r3, #12]
 8001cb4:	68da      	ldr	r2, [r3, #12]
 8001cb6:	f3c2 2206 	ubfx	r2, r2, #8, #7
 8001cba:	4342      	muls	r2, r0
 8001cbc:	68d8      	ldr	r0, [r3, #12]
 8001cbe:	f3c0 6041 	ubfx	r0, r0, #25, #2
 8001cc2:	f3c1 1102 	ubfx	r1, r1, #4, #3
 8001cc6:	3001      	adds	r0, #1
 8001cc8:	3101      	adds	r1, #1
 8001cca:	0040      	lsls	r0, r0, #1
 8001ccc:	fbb2 f2f1 	udiv	r2, r2, r1
 8001cd0:	fbb2 f0f0 	udiv	r0, r2, r0
 8001cd4:	4770      	bx	lr
 8001cd6:	4805      	ldr	r0, [pc, #20]	; (8001cec <HAL_RCC_GetSysClockFreq+0x98>)
 8001cd8:	e7eb      	b.n	8001cb2 <HAL_RCC_GetSysClockFreq+0x5e>
 8001cda:	4804      	ldr	r0, [pc, #16]	; (8001cec <HAL_RCC_GetSysClockFreq+0x98>)
 8001cdc:	4770      	bx	lr
 8001cde:	bf00      	nop
 8001ce0:	40021000 	.word	0x40021000
 8001ce4:	0800598c 	.word	0x0800598c
 8001ce8:	01312d00 	.word	0x01312d00
 8001cec:	00f42400 	.word	0x00f42400

08001cf0 <HAL_RCC_OscConfig>:
 8001cf0:	e92d 43f7 	stmdb	sp!, {r0, r1, r2, r4, r5, r6, r7, r8, r9, lr}
 8001cf4:	4605      	mov	r5, r0
 8001cf6:	b908      	cbnz	r0, 8001cfc <HAL_RCC_OscConfig+0xc>
 8001cf8:	2001      	movs	r0, #1
 8001cfa:	e047      	b.n	8001d8c <HAL_RCC_OscConfig+0x9c>
 8001cfc:	4c94      	ldr	r4, [pc, #592]	; (8001f50 <HAL_RCC_OscConfig+0x260>)
 8001cfe:	6803      	ldr	r3, [r0, #0]
 8001d00:	68a6      	ldr	r6, [r4, #8]
 8001d02:	68e7      	ldr	r7, [r4, #12]
 8001d04:	06db      	lsls	r3, r3, #27
 8001d06:	f006 060c 	and.w	r6, r6, #12
 8001d0a:	f007 0703 	and.w	r7, r7, #3
 8001d0e:	d575      	bpl.n	8001dfc <HAL_RCC_OscConfig+0x10c>
 8001d10:	b11e      	cbz	r6, 8001d1a <HAL_RCC_OscConfig+0x2a>
 8001d12:	2e0c      	cmp	r6, #12
 8001d14:	d154      	bne.n	8001dc0 <HAL_RCC_OscConfig+0xd0>
 8001d16:	2f01      	cmp	r7, #1
 8001d18:	d152      	bne.n	8001dc0 <HAL_RCC_OscConfig+0xd0>
 8001d1a:	6823      	ldr	r3, [r4, #0]
 8001d1c:	0798      	lsls	r0, r3, #30
 8001d1e:	d502      	bpl.n	8001d26 <HAL_RCC_OscConfig+0x36>
 8001d20:	69ab      	ldr	r3, [r5, #24]
 8001d22:	2b00      	cmp	r3, #0
 8001d24:	d0e8      	beq.n	8001cf8 <HAL_RCC_OscConfig+0x8>
 8001d26:	6823      	ldr	r3, [r4, #0]
 8001d28:	6a28      	ldr	r0, [r5, #32]
 8001d2a:	0719      	lsls	r1, r3, #28
 8001d2c:	bf56      	itet	pl
 8001d2e:	f8d4 3094 	ldrpl.w	r3, [r4, #148]	; 0x94
 8001d32:	6823      	ldrmi	r3, [r4, #0]
 8001d34:	091b      	lsrpl	r3, r3, #4
 8001d36:	f003 03f0 	and.w	r3, r3, #240	; 0xf0
 8001d3a:	4298      	cmp	r0, r3
 8001d3c:	d929      	bls.n	8001d92 <HAL_RCC_OscConfig+0xa2>
 8001d3e:	f7ff ff47 	bl	8001bd0 <RCC_SetFlashLatencyFromMSIRange>
 8001d42:	2800      	cmp	r0, #0
 8001d44:	d1d8      	bne.n	8001cf8 <HAL_RCC_OscConfig+0x8>
 8001d46:	6823      	ldr	r3, [r4, #0]
 8001d48:	f043 0308 	orr.w	r3, r3, #8
 8001d4c:	6023      	str	r3, [r4, #0]
 8001d4e:	6823      	ldr	r3, [r4, #0]
 8001d50:	6a2a      	ldr	r2, [r5, #32]
 8001d52:	f023 03f0 	bic.w	r3, r3, #240	; 0xf0
 8001d56:	4313      	orrs	r3, r2
 8001d58:	6023      	str	r3, [r4, #0]
 8001d5a:	6863      	ldr	r3, [r4, #4]
 8001d5c:	69ea      	ldr	r2, [r5, #28]
 8001d5e:	f423 437f 	bic.w	r3, r3, #65280	; 0xff00
 8001d62:	ea43 2302 	orr.w	r3, r3, r2, lsl #8
 8001d66:	6063      	str	r3, [r4, #4]
 8001d68:	f7ff ff74 	bl	8001c54 <HAL_RCC_GetSysClockFreq>
 8001d6c:	68a3      	ldr	r3, [r4, #8]
 8001d6e:	4a79      	ldr	r2, [pc, #484]	; (8001f54 <HAL_RCC_OscConfig+0x264>)
 8001d70:	f3c3 1303 	ubfx	r3, r3, #4, #4
 8001d74:	5cd3      	ldrb	r3, [r2, r3]
 8001d76:	f003 031f 	and.w	r3, r3, #31
 8001d7a:	40d8      	lsrs	r0, r3
 8001d7c:	4b76      	ldr	r3, [pc, #472]	; (8001f58 <HAL_RCC_OscConfig+0x268>)
 8001d7e:	6018      	str	r0, [r3, #0]
 8001d80:	4b76      	ldr	r3, [pc, #472]	; (8001f5c <HAL_RCC_OscConfig+0x26c>)
 8001d82:	6818      	ldr	r0, [r3, #0]
 8001d84:	f7ff f85a 	bl	8000e3c <HAL_InitTick>
 8001d88:	2800      	cmp	r0, #0
 8001d8a:	d037      	beq.n	8001dfc <HAL_RCC_OscConfig+0x10c>
 8001d8c:	b003      	add	sp, #12
 8001d8e:	e8bd 83f0 	ldmia.w	sp!, {r4, r5, r6, r7, r8, r9, pc}
 8001d92:	6823      	ldr	r3, [r4, #0]
 8001d94:	f043 0308 	orr.w	r3, r3, #8
 8001d98:	6023      	str	r3, [r4, #0]
 8001d9a:	6823      	ldr	r3, [r4, #0]
 8001d9c:	f023 03f0 	bic.w	r3, r3, #240	; 0xf0
 8001da0:	4303      	orrs	r3, r0
 8001da2:	6023      	str	r3, [r4, #0]
 8001da4:	6863      	ldr	r3, [r4, #4]
 8001da6:	69ea      	ldr	r2, [r5, #28]
 8001da8:	f423 437f 	bic.w	r3, r3, #65280	; 0xff00
 8001dac:	ea43 2302 	orr.w	r3, r3, r2, lsl #8
 8001db0:	6063      	str	r3, [r4, #4]
 8001db2:	2e00      	cmp	r6, #0
 8001db4:	d1d8      	bne.n	8001d68 <HAL_RCC_OscConfig+0x78>
 8001db6:	f7ff ff0b 	bl	8001bd0 <RCC_SetFlashLatencyFromMSIRange>
 8001dba:	2800      	cmp	r0, #0
 8001dbc:	d0d4      	beq.n	8001d68 <HAL_RCC_OscConfig+0x78>
 8001dbe:	e79b      	b.n	8001cf8 <HAL_RCC_OscConfig+0x8>
 8001dc0:	69ab      	ldr	r3, [r5, #24]
 8001dc2:	2b00      	cmp	r3, #0
 8001dc4:	d03a      	beq.n	8001e3c <HAL_RCC_OscConfig+0x14c>
 8001dc6:	6823      	ldr	r3, [r4, #0]
 8001dc8:	f043 0301 	orr.w	r3, r3, #1
 8001dcc:	6023      	str	r3, [r4, #0]
 8001dce:	f7ff f8dd 	bl	8000f8c <HAL_GetTick>
 8001dd2:	4680      	mov	r8, r0
 8001dd4:	6823      	ldr	r3, [r4, #0]
 8001dd6:	079a      	lsls	r2, r3, #30
 8001dd8:	d528      	bpl.n	8001e2c <HAL_RCC_OscConfig+0x13c>
 8001dda:	6823      	ldr	r3, [r4, #0]
 8001ddc:	f043 0308 	orr.w	r3, r3, #8
 8001de0:	6023      	str	r3, [r4, #0]
 8001de2:	6823      	ldr	r3, [r4, #0]
 8001de4:	6a2a      	ldr	r2, [r5, #32]
 8001de6:	f023 03f0 	bic.w	r3, r3, #240	; 0xf0
 8001dea:	4313      	orrs	r3, r2
 8001dec:	6023      	str	r3, [r4, #0]
 8001dee:	6863      	ldr	r3, [r4, #4]
 8001df0:	69ea      	ldr	r2, [r5, #28]
 8001df2:	f423 437f 	bic.w	r3, r3, #65280	; 0xff00
 8001df6:	ea43 2302 	orr.w	r3, r3, r2, lsl #8
 8001dfa:	6063      	str	r3, [r4, #4]
 8001dfc:	682b      	ldr	r3, [r5, #0]
 8001dfe:	07d8      	lsls	r0, r3, #31
 8001e00:	d42d      	bmi.n	8001e5e <HAL_RCC_OscConfig+0x16e>
 8001e02:	682b      	ldr	r3, [r5, #0]
 8001e04:	0799      	lsls	r1, r3, #30
 8001e06:	d46b      	bmi.n	8001ee0 <HAL_RCC_OscConfig+0x1f0>
 8001e08:	682b      	ldr	r3, [r5, #0]
 8001e0a:	0718      	lsls	r0, r3, #28
 8001e0c:	f100 80a8 	bmi.w	8001f60 <HAL_RCC_OscConfig+0x270>
 8001e10:	682b      	ldr	r3, [r5, #0]
 8001e12:	0759      	lsls	r1, r3, #29
 8001e14:	f100 80ce 	bmi.w	8001fb4 <HAL_RCC_OscConfig+0x2c4>
 8001e18:	682b      	ldr	r3, [r5, #0]
 8001e1a:	0699      	lsls	r1, r3, #26
 8001e1c:	f100 8137 	bmi.w	800208e <HAL_RCC_OscConfig+0x39e>
 8001e20:	6aab      	ldr	r3, [r5, #40]	; 0x28
 8001e22:	2b00      	cmp	r3, #0
 8001e24:	f040 815d 	bne.w	80020e2 <HAL_RCC_OscConfig+0x3f2>
 8001e28:	2000      	movs	r0, #0
 8001e2a:	e7af      	b.n	8001d8c <HAL_RCC_OscConfig+0x9c>
 8001e2c:	f7ff f8ae 	bl	8000f8c <HAL_GetTick>
 8001e30:	eba0 0008 	sub.w	r0, r0, r8
 8001e34:	2802      	cmp	r0, #2
 8001e36:	d9cd      	bls.n	8001dd4 <HAL_RCC_OscConfig+0xe4>
 8001e38:	2003      	movs	r0, #3
 8001e3a:	e7a7      	b.n	8001d8c <HAL_RCC_OscConfig+0x9c>
 8001e3c:	6823      	ldr	r3, [r4, #0]
 8001e3e:	f023 0301 	bic.w	r3, r3, #1
 8001e42:	6023      	str	r3, [r4, #0]
 8001e44:	f7ff f8a2 	bl	8000f8c <HAL_GetTick>
 8001e48:	4680      	mov	r8, r0
 8001e4a:	6823      	ldr	r3, [r4, #0]
 8001e4c:	079b      	lsls	r3, r3, #30
 8001e4e:	d5d5      	bpl.n	8001dfc <HAL_RCC_OscConfig+0x10c>
 8001e50:	f7ff f89c 	bl	8000f8c <HAL_GetTick>
 8001e54:	eba0 0008 	sub.w	r0, r0, r8
 8001e58:	2802      	cmp	r0, #2
 8001e5a:	d9f6      	bls.n	8001e4a <HAL_RCC_OscConfig+0x15a>
 8001e5c:	e7ec      	b.n	8001e38 <HAL_RCC_OscConfig+0x148>
 8001e5e:	2e08      	cmp	r6, #8
 8001e60:	d003      	beq.n	8001e6a <HAL_RCC_OscConfig+0x17a>
 8001e62:	2e0c      	cmp	r6, #12
 8001e64:	d108      	bne.n	8001e78 <HAL_RCC_OscConfig+0x188>
 8001e66:	2f03      	cmp	r7, #3
 8001e68:	d106      	bne.n	8001e78 <HAL_RCC_OscConfig+0x188>
 8001e6a:	6823      	ldr	r3, [r4, #0]
 8001e6c:	039a      	lsls	r2, r3, #14
 8001e6e:	d5c8      	bpl.n	8001e02 <HAL_RCC_OscConfig+0x112>
 8001e70:	686b      	ldr	r3, [r5, #4]
 8001e72:	2b00      	cmp	r3, #0
 8001e74:	d1c5      	bne.n	8001e02 <HAL_RCC_OscConfig+0x112>
 8001e76:	e73f      	b.n	8001cf8 <HAL_RCC_OscConfig+0x8>
 8001e78:	686b      	ldr	r3, [r5, #4]
 8001e7a:	f5b3 3f80 	cmp.w	r3, #65536	; 0x10000
 8001e7e:	d110      	bne.n	8001ea2 <HAL_RCC_OscConfig+0x1b2>
 8001e80:	6823      	ldr	r3, [r4, #0]
 8001e82:	f443 3380 	orr.w	r3, r3, #65536	; 0x10000
 8001e86:	6023      	str	r3, [r4, #0]
 8001e88:	f7ff f880 	bl	8000f8c <HAL_GetTick>
 8001e8c:	4680      	mov	r8, r0
 8001e8e:	6823      	ldr	r3, [r4, #0]
 8001e90:	039b      	lsls	r3, r3, #14
 8001e92:	d4b6      	bmi.n	8001e02 <HAL_RCC_OscConfig+0x112>
 8001e94:	f7ff f87a 	bl	8000f8c <HAL_GetTick>
 8001e98:	eba0 0008 	sub.w	r0, r0, r8
 8001e9c:	2864      	cmp	r0, #100	; 0x64
 8001e9e:	d9f6      	bls.n	8001e8e <HAL_RCC_OscConfig+0x19e>
 8001ea0:	e7ca      	b.n	8001e38 <HAL_RCC_OscConfig+0x148>
 8001ea2:	f5b3 2fa0 	cmp.w	r3, #327680	; 0x50000
 8001ea6:	d104      	bne.n	8001eb2 <HAL_RCC_OscConfig+0x1c2>
 8001ea8:	6823      	ldr	r3, [r4, #0]
 8001eaa:	f443 2380 	orr.w	r3, r3, #262144	; 0x40000
 8001eae:	6023      	str	r3, [r4, #0]
 8001eb0:	e7e6      	b.n	8001e80 <HAL_RCC_OscConfig+0x190>
 8001eb2:	6822      	ldr	r2, [r4, #0]
 8001eb4:	f422 3280 	bic.w	r2, r2, #65536	; 0x10000
 8001eb8:	6022      	str	r2, [r4, #0]
 8001eba:	6822      	ldr	r2, [r4, #0]
 8001ebc:	f422 2280 	bic.w	r2, r2, #262144	; 0x40000
 8001ec0:	6022      	str	r2, [r4, #0]
 8001ec2:	2b00      	cmp	r3, #0
 8001ec4:	d1e0      	bne.n	8001e88 <HAL_RCC_OscConfig+0x198>
 8001ec6:	f7ff f861 	bl	8000f8c <HAL_GetTick>
 8001eca:	4680      	mov	r8, r0
 8001ecc:	6823      	ldr	r3, [r4, #0]
 8001ece:	0398      	lsls	r0, r3, #14
 8001ed0:	d597      	bpl.n	8001e02 <HAL_RCC_OscConfig+0x112>
 8001ed2:	f7ff f85b 	bl	8000f8c <HAL_GetTick>
 8001ed6:	eba0 0008 	sub.w	r0, r0, r8
 8001eda:	2864      	cmp	r0, #100	; 0x64
 8001edc:	d9f6      	bls.n	8001ecc <HAL_RCC_OscConfig+0x1dc>
 8001ede:	e7ab      	b.n	8001e38 <HAL_RCC_OscConfig+0x148>
 8001ee0:	2e04      	cmp	r6, #4
 8001ee2:	d003      	beq.n	8001eec <HAL_RCC_OscConfig+0x1fc>
 8001ee4:	2e0c      	cmp	r6, #12
 8001ee6:	d110      	bne.n	8001f0a <HAL_RCC_OscConfig+0x21a>
 8001ee8:	2f02      	cmp	r7, #2
 8001eea:	d10e      	bne.n	8001f0a <HAL_RCC_OscConfig+0x21a>
 8001eec:	6823      	ldr	r3, [r4, #0]
 8001eee:	0559      	lsls	r1, r3, #21
 8001ef0:	d503      	bpl.n	8001efa <HAL_RCC_OscConfig+0x20a>
 8001ef2:	68eb      	ldr	r3, [r5, #12]
 8001ef4:	2b00      	cmp	r3, #0
 8001ef6:	f43f aeff 	beq.w	8001cf8 <HAL_RCC_OscConfig+0x8>
 8001efa:	6863      	ldr	r3, [r4, #4]
 8001efc:	692a      	ldr	r2, [r5, #16]
 8001efe:	f023 53f8 	bic.w	r3, r3, #520093696	; 0x1f000000
 8001f02:	ea43 6302 	orr.w	r3, r3, r2, lsl #24
 8001f06:	6063      	str	r3, [r4, #4]
 8001f08:	e77e      	b.n	8001e08 <HAL_RCC_OscConfig+0x118>
 8001f0a:	68eb      	ldr	r3, [r5, #12]
 8001f0c:	b17b      	cbz	r3, 8001f2e <HAL_RCC_OscConfig+0x23e>
 8001f0e:	6823      	ldr	r3, [r4, #0]
 8001f10:	f443 7380 	orr.w	r3, r3, #256	; 0x100
 8001f14:	6023      	str	r3, [r4, #0]
 8001f16:	f7ff f839 	bl	8000f8c <HAL_GetTick>
 8001f1a:	4607      	mov	r7, r0
 8001f1c:	6823      	ldr	r3, [r4, #0]
 8001f1e:	055a      	lsls	r2, r3, #21
 8001f20:	d4eb      	bmi.n	8001efa <HAL_RCC_OscConfig+0x20a>
 8001f22:	f7ff f833 	bl	8000f8c <HAL_GetTick>
 8001f26:	1bc0      	subs	r0, r0, r7
 8001f28:	2802      	cmp	r0, #2
 8001f2a:	d9f7      	bls.n	8001f1c <HAL_RCC_OscConfig+0x22c>
 8001f2c:	e784      	b.n	8001e38 <HAL_RCC_OscConfig+0x148>
 8001f2e:	6823      	ldr	r3, [r4, #0]
 8001f30:	f423 7380 	bic.w	r3, r3, #256	; 0x100
 8001f34:	6023      	str	r3, [r4, #0]
 8001f36:	f7ff f829 	bl	8000f8c <HAL_GetTick>
 8001f3a:	4607      	mov	r7, r0
 8001f3c:	6823      	ldr	r3, [r4, #0]
 8001f3e:	055b      	lsls	r3, r3, #21
 8001f40:	f57f af62 	bpl.w	8001e08 <HAL_RCC_OscConfig+0x118>
 8001f44:	f7ff f822 	bl	8000f8c <HAL_GetTick>
 8001f48:	1bc0      	subs	r0, r0, r7
 8001f4a:	2802      	cmp	r0, #2
 8001f4c:	d9f6      	bls.n	8001f3c <HAL_RCC_OscConfig+0x24c>
 8001f4e:	e773      	b.n	8001e38 <HAL_RCC_OscConfig+0x148>
 8001f50:	40021000 	.word	0x40021000
 8001f54:	08005974 	.word	0x08005974
 8001f58:	20000000 	.word	0x20000000
 8001f5c:	20000008 	.word	0x20000008
 8001f60:	696b      	ldr	r3, [r5, #20]
 8001f62:	b19b      	cbz	r3, 8001f8c <HAL_RCC_OscConfig+0x29c>
 8001f64:	f8d4 3094 	ldr.w	r3, [r4, #148]	; 0x94
 8001f68:	f043 0301 	orr.w	r3, r3, #1
 8001f6c:	f8c4 3094 	str.w	r3, [r4, #148]	; 0x94
 8001f70:	f7ff f80c 	bl	8000f8c <HAL_GetTick>
 8001f74:	4607      	mov	r7, r0
 8001f76:	f8d4 3094 	ldr.w	r3, [r4, #148]	; 0x94
 8001f7a:	079a      	lsls	r2, r3, #30
 8001f7c:	f53f af48 	bmi.w	8001e10 <HAL_RCC_OscConfig+0x120>
 8001f80:	f7ff f804 	bl	8000f8c <HAL_GetTick>
 8001f84:	1bc0      	subs	r0, r0, r7
 8001f86:	2802      	cmp	r0, #2
 8001f88:	d9f5      	bls.n	8001f76 <HAL_RCC_OscConfig+0x286>
 8001f8a:	e755      	b.n	8001e38 <HAL_RCC_OscConfig+0x148>
 8001f8c:	f8d4 3094 	ldr.w	r3, [r4, #148]	; 0x94
 8001f90:	f023 0301 	bic.w	r3, r3, #1
 8001f94:	f8c4 3094 	str.w	r3, [r4, #148]	; 0x94
 8001f98:	f7fe fff8 	bl	8000f8c <HAL_GetTick>
 8001f9c:	4607      	mov	r7, r0
 8001f9e:	f8d4 3094 	ldr.w	r3, [r4, #148]	; 0x94
 8001fa2:	079b      	lsls	r3, r3, #30
 8001fa4:	f57f af34 	bpl.w	8001e10 <HAL_RCC_OscConfig+0x120>
 8001fa8:	f7fe fff0 	bl	8000f8c <HAL_GetTick>
 8001fac:	1bc0      	subs	r0, r0, r7
 8001fae:	2802      	cmp	r0, #2
 8001fb0:	d9f5      	bls.n	8001f9e <HAL_RCC_OscConfig+0x2ae>
 8001fb2:	e741      	b.n	8001e38 <HAL_RCC_OscConfig+0x148>
 8001fb4:	6da3      	ldr	r3, [r4, #88]	; 0x58
 8001fb6:	00d8      	lsls	r0, r3, #3
 8001fb8:	d429      	bmi.n	800200e <HAL_RCC_OscConfig+0x31e>
 8001fba:	6da3      	ldr	r3, [r4, #88]	; 0x58
 8001fbc:	f043 5380 	orr.w	r3, r3, #268435456	; 0x10000000
 8001fc0:	65a3      	str	r3, [r4, #88]	; 0x58
 8001fc2:	6da3      	ldr	r3, [r4, #88]	; 0x58
 8001fc4:	f003 5380 	and.w	r3, r3, #268435456	; 0x10000000
 8001fc8:	9301      	str	r3, [sp, #4]
 8001fca:	9b01      	ldr	r3, [sp, #4]
 8001fcc:	f04f 0801 	mov.w	r8, #1
 8001fd0:	4f96      	ldr	r7, [pc, #600]	; (800222c <HAL_RCC_OscConfig+0x53c>)
 8001fd2:	683b      	ldr	r3, [r7, #0]
 8001fd4:	05d9      	lsls	r1, r3, #23
 8001fd6:	d51d      	bpl.n	8002014 <HAL_RCC_OscConfig+0x324>
 8001fd8:	68ab      	ldr	r3, [r5, #8]
 8001fda:	2b01      	cmp	r3, #1
 8001fdc:	d12b      	bne.n	8002036 <HAL_RCC_OscConfig+0x346>
 8001fde:	f8d4 3090 	ldr.w	r3, [r4, #144]	; 0x90
 8001fe2:	f043 0301 	orr.w	r3, r3, #1
 8001fe6:	f8c4 3090 	str.w	r3, [r4, #144]	; 0x90
 8001fea:	f7fe ffcf 	bl	8000f8c <HAL_GetTick>
 8001fee:	f241 3988 	movw	r9, #5000	; 0x1388
 8001ff2:	4607      	mov	r7, r0
 8001ff4:	f8d4 3090 	ldr.w	r3, [r4, #144]	; 0x90
 8001ff8:	079b      	lsls	r3, r3, #30
 8001ffa:	d542      	bpl.n	8002082 <HAL_RCC_OscConfig+0x392>
 8001ffc:	f1b8 0f00 	cmp.w	r8, #0
 8002000:	f43f af0a 	beq.w	8001e18 <HAL_RCC_OscConfig+0x128>
 8002004:	6da3      	ldr	r3, [r4, #88]	; 0x58
 8002006:	f023 5380 	bic.w	r3, r3, #268435456	; 0x10000000
 800200a:	65a3      	str	r3, [r4, #88]	; 0x58
 800200c:	e704      	b.n	8001e18 <HAL_RCC_OscConfig+0x128>
 800200e:	f04f 0800 	mov.w	r8, #0
 8002012:	e7dd      	b.n	8001fd0 <HAL_RCC_OscConfig+0x2e0>
 8002014:	683b      	ldr	r3, [r7, #0]
 8002016:	f443 7380 	orr.w	r3, r3, #256	; 0x100
 800201a:	603b      	str	r3, [r7, #0]
 800201c:	f7fe ffb6 	bl	8000f8c <HAL_GetTick>
 8002020:	4681      	mov	r9, r0
 8002022:	683b      	ldr	r3, [r7, #0]
 8002024:	05da      	lsls	r2, r3, #23
 8002026:	d4d7      	bmi.n	8001fd8 <HAL_RCC_OscConfig+0x2e8>
 8002028:	f7fe ffb0 	bl	8000f8c <HAL_GetTick>
 800202c:	eba0 0009 	sub.w	r0, r0, r9
 8002030:	2802      	cmp	r0, #2
 8002032:	d9f6      	bls.n	8002022 <HAL_RCC_OscConfig+0x332>
 8002034:	e700      	b.n	8001e38 <HAL_RCC_OscConfig+0x148>
 8002036:	2b05      	cmp	r3, #5
 8002038:	d106      	bne.n	8002048 <HAL_RCC_OscConfig+0x358>
 800203a:	f8d4 3090 	ldr.w	r3, [r4, #144]	; 0x90
 800203e:	f043 0304 	orr.w	r3, r3, #4
 8002042:	f8c4 3090 	str.w	r3, [r4, #144]	; 0x90
 8002046:	e7ca      	b.n	8001fde <HAL_RCC_OscConfig+0x2ee>
 8002048:	f8d4 2090 	ldr.w	r2, [r4, #144]	; 0x90
 800204c:	f022 0201 	bic.w	r2, r2, #1
 8002050:	f8c4 2090 	str.w	r2, [r4, #144]	; 0x90
 8002054:	f8d4 2090 	ldr.w	r2, [r4, #144]	; 0x90
 8002058:	f022 0204 	bic.w	r2, r2, #4
 800205c:	f8c4 2090 	str.w	r2, [r4, #144]	; 0x90
 8002060:	2b00      	cmp	r3, #0
 8002062:	d1c2      	bne.n	8001fea <HAL_RCC_OscConfig+0x2fa>
 8002064:	f7fe ff92 	bl	8000f8c <HAL_GetTick>
 8002068:	f241 3988 	movw	r9, #5000	; 0x1388
 800206c:	4607      	mov	r7, r0
 800206e:	f8d4 3090 	ldr.w	r3, [r4, #144]	; 0x90
 8002072:	0798      	lsls	r0, r3, #30
 8002074:	d5c2      	bpl.n	8001ffc <HAL_RCC_OscConfig+0x30c>
 8002076:	f7fe ff89 	bl	8000f8c <HAL_GetTick>
 800207a:	1bc0      	subs	r0, r0, r7
 800207c:	4548      	cmp	r0, r9
 800207e:	d9f6      	bls.n	800206e <HAL_RCC_OscConfig+0x37e>
 8002080:	e6da      	b.n	8001e38 <HAL_RCC_OscConfig+0x148>
 8002082:	f7fe ff83 	bl	8000f8c <HAL_GetTick>
 8002086:	1bc0      	subs	r0, r0, r7
 8002088:	4548      	cmp	r0, r9
 800208a:	d9b3      	bls.n	8001ff4 <HAL_RCC_OscConfig+0x304>
 800208c:	e6d4      	b.n	8001e38 <HAL_RCC_OscConfig+0x148>
 800208e:	6a6b      	ldr	r3, [r5, #36]	; 0x24
 8002090:	b19b      	cbz	r3, 80020ba <HAL_RCC_OscConfig+0x3ca>
 8002092:	f8d4 3098 	ldr.w	r3, [r4, #152]	; 0x98
 8002096:	f043 0301 	orr.w	r3, r3, #1
 800209a:	f8c4 3098 	str.w	r3, [r4, #152]	; 0x98
 800209e:	f7fe ff75 	bl	8000f8c <HAL_GetTick>
 80020a2:	4607      	mov	r7, r0
 80020a4:	f8d4 3098 	ldr.w	r3, [r4, #152]	; 0x98
 80020a8:	079a      	lsls	r2, r3, #30
 80020aa:	f53f aeb9 	bmi.w	8001e20 <HAL_RCC_OscConfig+0x130>
 80020ae:	f7fe ff6d 	bl	8000f8c <HAL_GetTick>
 80020b2:	1bc0      	subs	r0, r0, r7
 80020b4:	2802      	cmp	r0, #2
 80020b6:	d9f5      	bls.n	80020a4 <HAL_RCC_OscConfig+0x3b4>
 80020b8:	e6be      	b.n	8001e38 <HAL_RCC_OscConfig+0x148>
 80020ba:	f8d4 3098 	ldr.w	r3, [r4, #152]	; 0x98
 80020be:	f023 0301 	bic.w	r3, r3, #1
 80020c2:	f8c4 3098 	str.w	r3, [r4, #152]	; 0x98
 80020c6:	f7fe ff61 	bl	8000f8c <HAL_GetTick>
 80020ca:	4607      	mov	r7, r0
 80020cc:	f8d4 3098 	ldr.w	r3, [r4, #152]	; 0x98
 80020d0:	079b      	lsls	r3, r3, #30
 80020d2:	f57f aea5 	bpl.w	8001e20 <HAL_RCC_OscConfig+0x130>
 80020d6:	f7fe ff59 	bl	8000f8c <HAL_GetTick>
 80020da:	1bc0      	subs	r0, r0, r7
 80020dc:	2802      	cmp	r0, #2
 80020de:	d9f5      	bls.n	80020cc <HAL_RCC_OscConfig+0x3dc>
 80020e0:	e6aa      	b.n	8001e38 <HAL_RCC_OscConfig+0x148>
 80020e2:	2b02      	cmp	r3, #2
 80020e4:	f040 8088 	bne.w	80021f8 <HAL_RCC_OscConfig+0x508>
 80020e8:	68e3      	ldr	r3, [r4, #12]
 80020ea:	6aea      	ldr	r2, [r5, #44]	; 0x2c
 80020ec:	f003 0103 	and.w	r1, r3, #3
 80020f0:	4291      	cmp	r1, r2
 80020f2:	d122      	bne.n	800213a <HAL_RCC_OscConfig+0x44a>
 80020f4:	6b29      	ldr	r1, [r5, #48]	; 0x30
 80020f6:	f003 0270 	and.w	r2, r3, #112	; 0x70
 80020fa:	3901      	subs	r1, #1
 80020fc:	ebb2 1f01 	cmp.w	r2, r1, lsl #4
 8002100:	d11b      	bne.n	800213a <HAL_RCC_OscConfig+0x44a>
 8002102:	6b69      	ldr	r1, [r5, #52]	; 0x34
 8002104:	f403 42fe 	and.w	r2, r3, #32512	; 0x7f00
 8002108:	ebb2 2f01 	cmp.w	r2, r1, lsl #8
 800210c:	d115      	bne.n	800213a <HAL_RCC_OscConfig+0x44a>
 800210e:	6ba9      	ldr	r1, [r5, #56]	; 0x38
 8002110:	f003 4278 	and.w	r2, r3, #4160749568	; 0xf8000000
 8002114:	ebb2 6fc1 	cmp.w	r2, r1, lsl #27
 8002118:	d10f      	bne.n	800213a <HAL_RCC_OscConfig+0x44a>
 800211a:	6bea      	ldr	r2, [r5, #60]	; 0x3c
 800211c:	0852      	lsrs	r2, r2, #1
 800211e:	f403 01c0 	and.w	r1, r3, #6291456	; 0x600000
 8002122:	3a01      	subs	r2, #1
 8002124:	ebb1 5f42 	cmp.w	r1, r2, lsl #21
 8002128:	d107      	bne.n	800213a <HAL_RCC_OscConfig+0x44a>
 800212a:	6c2a      	ldr	r2, [r5, #64]	; 0x40
 800212c:	0852      	lsrs	r2, r2, #1
 800212e:	f003 63c0 	and.w	r3, r3, #100663296	; 0x6000000
 8002132:	3a01      	subs	r2, #1
 8002134:	ebb3 6f42 	cmp.w	r3, r2, lsl #25
 8002138:	d045      	beq.n	80021c6 <HAL_RCC_OscConfig+0x4d6>
 800213a:	2e0c      	cmp	r6, #12
 800213c:	f43f addc 	beq.w	8001cf8 <HAL_RCC_OscConfig+0x8>
 8002140:	6823      	ldr	r3, [r4, #0]
 8002142:	015e      	lsls	r6, r3, #5
 8002144:	f53f add8 	bmi.w	8001cf8 <HAL_RCC_OscConfig+0x8>
 8002148:	6823      	ldr	r3, [r4, #0]
 800214a:	f023 7380 	bic.w	r3, r3, #16777216	; 0x1000000
 800214e:	6023      	str	r3, [r4, #0]
 8002150:	f7fe ff1c 	bl	8000f8c <HAL_GetTick>
 8002154:	4606      	mov	r6, r0
 8002156:	6823      	ldr	r3, [r4, #0]
 8002158:	0198      	lsls	r0, r3, #6
 800215a:	d42e      	bmi.n	80021ba <HAL_RCC_OscConfig+0x4ca>
 800215c:	68e2      	ldr	r2, [r4, #12]
 800215e:	4b34      	ldr	r3, [pc, #208]	; (8002230 <HAL_RCC_OscConfig+0x540>)
 8002160:	4013      	ands	r3, r2
 8002162:	6aea      	ldr	r2, [r5, #44]	; 0x2c
 8002164:	4313      	orrs	r3, r2
 8002166:	6b6a      	ldr	r2, [r5, #52]	; 0x34
 8002168:	ea43 2302 	orr.w	r3, r3, r2, lsl #8
 800216c:	6baa      	ldr	r2, [r5, #56]	; 0x38
 800216e:	ea43 63c2 	orr.w	r3, r3, r2, lsl #27
 8002172:	6b2a      	ldr	r2, [r5, #48]	; 0x30
 8002174:	3a01      	subs	r2, #1
 8002176:	ea43 1302 	orr.w	r3, r3, r2, lsl #4
 800217a:	6bea      	ldr	r2, [r5, #60]	; 0x3c
 800217c:	0852      	lsrs	r2, r2, #1
 800217e:	3a01      	subs	r2, #1
 8002180:	ea43 5342 	orr.w	r3, r3, r2, lsl #21
 8002184:	6c2a      	ldr	r2, [r5, #64]	; 0x40
 8002186:	0852      	lsrs	r2, r2, #1
 8002188:	3a01      	subs	r2, #1
 800218a:	ea43 6342 	orr.w	r3, r3, r2, lsl #25
 800218e:	60e3      	str	r3, [r4, #12]
 8002190:	6823      	ldr	r3, [r4, #0]
 8002192:	f043 7380 	orr.w	r3, r3, #16777216	; 0x1000000
 8002196:	6023      	str	r3, [r4, #0]
 8002198:	68e3      	ldr	r3, [r4, #12]
 800219a:	f043 7380 	orr.w	r3, r3, #16777216	; 0x1000000
 800219e:	60e3      	str	r3, [r4, #12]
 80021a0:	f7fe fef4 	bl	8000f8c <HAL_GetTick>
 80021a4:	4605      	mov	r5, r0
 80021a6:	6823      	ldr	r3, [r4, #0]
 80021a8:	0199      	lsls	r1, r3, #6
 80021aa:	f53f ae3d 	bmi.w	8001e28 <HAL_RCC_OscConfig+0x138>
 80021ae:	f7fe feed 	bl	8000f8c <HAL_GetTick>
 80021b2:	1b40      	subs	r0, r0, r5
 80021b4:	2802      	cmp	r0, #2
 80021b6:	d9f6      	bls.n	80021a6 <HAL_RCC_OscConfig+0x4b6>
 80021b8:	e63e      	b.n	8001e38 <HAL_RCC_OscConfig+0x148>
 80021ba:	f7fe fee7 	bl	8000f8c <HAL_GetTick>
 80021be:	1b80      	subs	r0, r0, r6
 80021c0:	2802      	cmp	r0, #2
 80021c2:	d9c8      	bls.n	8002156 <HAL_RCC_OscConfig+0x466>
 80021c4:	e638      	b.n	8001e38 <HAL_RCC_OscConfig+0x148>
 80021c6:	6823      	ldr	r3, [r4, #0]
 80021c8:	019a      	lsls	r2, r3, #6
 80021ca:	f53f ae2d 	bmi.w	8001e28 <HAL_RCC_OscConfig+0x138>
 80021ce:	6823      	ldr	r3, [r4, #0]
 80021d0:	f043 7380 	orr.w	r3, r3, #16777216	; 0x1000000
 80021d4:	6023      	str	r3, [r4, #0]
 80021d6:	68e3      	ldr	r3, [r4, #12]
 80021d8:	f043 7380 	orr.w	r3, r3, #16777216	; 0x1000000
 80021dc:	60e3      	str	r3, [r4, #12]
 80021de:	f7fe fed5 	bl	8000f8c <HAL_GetTick>
 80021e2:	4605      	mov	r5, r0
 80021e4:	6823      	ldr	r3, [r4, #0]
 80021e6:	019b      	lsls	r3, r3, #6
 80021e8:	f53f ae1e 	bmi.w	8001e28 <HAL_RCC_OscConfig+0x138>
 80021ec:	f7fe fece 	bl	8000f8c <HAL_GetTick>
 80021f0:	1b40      	subs	r0, r0, r5
 80021f2:	2802      	cmp	r0, #2
 80021f4:	d9f6      	bls.n	80021e4 <HAL_RCC_OscConfig+0x4f4>
 80021f6:	e61f      	b.n	8001e38 <HAL_RCC_OscConfig+0x148>
 80021f8:	2e0c      	cmp	r6, #12
 80021fa:	f43f ad7d 	beq.w	8001cf8 <HAL_RCC_OscConfig+0x8>
 80021fe:	6823      	ldr	r3, [r4, #0]
 8002200:	f023 7380 	bic.w	r3, r3, #16777216	; 0x1000000
 8002204:	6023      	str	r3, [r4, #0]
 8002206:	f7fe fec1 	bl	8000f8c <HAL_GetTick>
 800220a:	4605      	mov	r5, r0
 800220c:	6823      	ldr	r3, [r4, #0]
 800220e:	f013 7300 	ands.w	r3, r3, #33554432	; 0x2000000
 8002212:	d104      	bne.n	800221e <HAL_RCC_OscConfig+0x52e>
 8002214:	68e1      	ldr	r1, [r4, #12]
 8002216:	4a07      	ldr	r2, [pc, #28]	; (8002234 <HAL_RCC_OscConfig+0x544>)
 8002218:	400a      	ands	r2, r1
 800221a:	60e2      	str	r2, [r4, #12]
 800221c:	e604      	b.n	8001e28 <HAL_RCC_OscConfig+0x138>
 800221e:	f7fe feb5 	bl	8000f8c <HAL_GetTick>
 8002222:	1b40      	subs	r0, r0, r5
 8002224:	2802      	cmp	r0, #2
 8002226:	d9f1      	bls.n	800220c <HAL_RCC_OscConfig+0x51c>
 8002228:	e606      	b.n	8001e38 <HAL_RCC_OscConfig+0x148>
 800222a:	bf00      	nop
 800222c:	40007000 	.word	0x40007000
 8002230:	019d808c 	.word	0x019d808c
 8002234:	feeefffc 	.word	0xfeeefffc

08002238 <HAL_RCC_ClockConfig>:
 8002238:	e92d 41f0 	stmdb	sp!, {r4, r5, r6, r7, r8, lr}
 800223c:	460d      	mov	r5, r1
 800223e:	4604      	mov	r4, r0
 8002240:	b910      	cbnz	r0, 8002248 <HAL_RCC_ClockConfig+0x10>
 8002242:	2001      	movs	r0, #1
 8002244:	e8bd 81f0 	ldmia.w	sp!, {r4, r5, r6, r7, r8, pc}
 8002248:	4a4b      	ldr	r2, [pc, #300]	; (8002378 <HAL_RCC_ClockConfig+0x140>)
 800224a:	6813      	ldr	r3, [r2, #0]
 800224c:	f003 0307 	and.w	r3, r3, #7
 8002250:	428b      	cmp	r3, r1
 8002252:	d32c      	bcc.n	80022ae <HAL_RCC_ClockConfig+0x76>
 8002254:	6820      	ldr	r0, [r4, #0]
 8002256:	0786      	lsls	r6, r0, #30
 8002258:	d434      	bmi.n	80022c4 <HAL_RCC_ClockConfig+0x8c>
 800225a:	07c1      	lsls	r1, r0, #31
 800225c:	d43f      	bmi.n	80022de <HAL_RCC_ClockConfig+0xa6>
 800225e:	6821      	ldr	r1, [r4, #0]
 8002260:	078a      	lsls	r2, r1, #30
 8002262:	d468      	bmi.n	8002336 <HAL_RCC_ClockConfig+0xfe>
 8002264:	4a44      	ldr	r2, [pc, #272]	; (8002378 <HAL_RCC_ClockConfig+0x140>)
 8002266:	6813      	ldr	r3, [r2, #0]
 8002268:	f003 0307 	and.w	r3, r3, #7
 800226c:	42ab      	cmp	r3, r5
 800226e:	d86f      	bhi.n	8002350 <HAL_RCC_ClockConfig+0x118>
 8002270:	f011 0f04 	tst.w	r1, #4
 8002274:	4d41      	ldr	r5, [pc, #260]	; (800237c <HAL_RCC_ClockConfig+0x144>)
 8002276:	d177      	bne.n	8002368 <HAL_RCC_ClockConfig+0x130>
 8002278:	070b      	lsls	r3, r1, #28
 800227a:	d506      	bpl.n	800228a <HAL_RCC_ClockConfig+0x52>
 800227c:	68ab      	ldr	r3, [r5, #8]
 800227e:	6922      	ldr	r2, [r4, #16]
 8002280:	f423 5360 	bic.w	r3, r3, #14336	; 0x3800
 8002284:	ea43 03c2 	orr.w	r3, r3, r2, lsl #3
 8002288:	60ab      	str	r3, [r5, #8]
 800228a:	f7ff fce3 	bl	8001c54 <HAL_RCC_GetSysClockFreq>
 800228e:	68ab      	ldr	r3, [r5, #8]
 8002290:	4a3b      	ldr	r2, [pc, #236]	; (8002380 <HAL_RCC_ClockConfig+0x148>)
 8002292:	f3c3 1303 	ubfx	r3, r3, #4, #4
 8002296:	e8bd 41f0 	ldmia.w	sp!, {r4, r5, r6, r7, r8, lr}
 800229a:	5cd3      	ldrb	r3, [r2, r3]
 800229c:	f003 031f 	and.w	r3, r3, #31
 80022a0:	40d8      	lsrs	r0, r3
 80022a2:	4b38      	ldr	r3, [pc, #224]	; (8002384 <HAL_RCC_ClockConfig+0x14c>)
 80022a4:	6018      	str	r0, [r3, #0]
 80022a6:	4b38      	ldr	r3, [pc, #224]	; (8002388 <HAL_RCC_ClockConfig+0x150>)
 80022a8:	6818      	ldr	r0, [r3, #0]
 80022aa:	f7fe bdc7 	b.w	8000e3c <HAL_InitTick>
 80022ae:	6813      	ldr	r3, [r2, #0]
 80022b0:	f023 0307 	bic.w	r3, r3, #7
 80022b4:	430b      	orrs	r3, r1
 80022b6:	6013      	str	r3, [r2, #0]
 80022b8:	6813      	ldr	r3, [r2, #0]
 80022ba:	f003 0307 	and.w	r3, r3, #7
 80022be:	428b      	cmp	r3, r1
 80022c0:	d1bf      	bne.n	8002242 <HAL_RCC_ClockConfig+0xa>
 80022c2:	e7c7      	b.n	8002254 <HAL_RCC_ClockConfig+0x1c>
 80022c4:	4a2d      	ldr	r2, [pc, #180]	; (800237c <HAL_RCC_ClockConfig+0x144>)
 80022c6:	68a6      	ldr	r6, [r4, #8]
 80022c8:	6891      	ldr	r1, [r2, #8]
 80022ca:	f001 01f0 	and.w	r1, r1, #240	; 0xf0
 80022ce:	428e      	cmp	r6, r1
 80022d0:	bf81      	itttt	hi
 80022d2:	6893      	ldrhi	r3, [r2, #8]
 80022d4:	f023 03f0 	bichi.w	r3, r3, #240	; 0xf0
 80022d8:	4333      	orrhi	r3, r6
 80022da:	6093      	strhi	r3, [r2, #8]
 80022dc:	e7bd      	b.n	800225a <HAL_RCC_ClockConfig+0x22>
 80022de:	6862      	ldr	r2, [r4, #4]
 80022e0:	4e26      	ldr	r6, [pc, #152]	; (800237c <HAL_RCC_ClockConfig+0x144>)
 80022e2:	2a03      	cmp	r2, #3
 80022e4:	6833      	ldr	r3, [r6, #0]
 80022e6:	d11a      	bne.n	800231e <HAL_RCC_ClockConfig+0xe6>
 80022e8:	f013 7f00 	tst.w	r3, #33554432	; 0x2000000
 80022ec:	d0a9      	beq.n	8002242 <HAL_RCC_ClockConfig+0xa>
 80022ee:	68b3      	ldr	r3, [r6, #8]
 80022f0:	f023 0303 	bic.w	r3, r3, #3
 80022f4:	4313      	orrs	r3, r2
 80022f6:	60b3      	str	r3, [r6, #8]
 80022f8:	f7fe fe48 	bl	8000f8c <HAL_GetTick>
 80022fc:	f241 3888 	movw	r8, #5000	; 0x1388
 8002300:	4607      	mov	r7, r0
 8002302:	68b3      	ldr	r3, [r6, #8]
 8002304:	6862      	ldr	r2, [r4, #4]
 8002306:	f003 030c 	and.w	r3, r3, #12
 800230a:	ebb3 0f82 	cmp.w	r3, r2, lsl #2
 800230e:	d0a6      	beq.n	800225e <HAL_RCC_ClockConfig+0x26>
 8002310:	f7fe fe3c 	bl	8000f8c <HAL_GetTick>
 8002314:	1bc0      	subs	r0, r0, r7
 8002316:	4540      	cmp	r0, r8
 8002318:	d9f3      	bls.n	8002302 <HAL_RCC_ClockConfig+0xca>
 800231a:	2003      	movs	r0, #3
 800231c:	e792      	b.n	8002244 <HAL_RCC_ClockConfig+0xc>
 800231e:	2a02      	cmp	r2, #2
 8002320:	d102      	bne.n	8002328 <HAL_RCC_ClockConfig+0xf0>
 8002322:	f413 3f00 	tst.w	r3, #131072	; 0x20000
 8002326:	e7e1      	b.n	80022ec <HAL_RCC_ClockConfig+0xb4>
 8002328:	b912      	cbnz	r2, 8002330 <HAL_RCC_ClockConfig+0xf8>
 800232a:	f013 0f02 	tst.w	r3, #2
 800232e:	e7dd      	b.n	80022ec <HAL_RCC_ClockConfig+0xb4>
 8002330:	f413 6f80 	tst.w	r3, #1024	; 0x400
 8002334:	e7da      	b.n	80022ec <HAL_RCC_ClockConfig+0xb4>
 8002336:	4a11      	ldr	r2, [pc, #68]	; (800237c <HAL_RCC_ClockConfig+0x144>)
 8002338:	68a6      	ldr	r6, [r4, #8]
 800233a:	6890      	ldr	r0, [r2, #8]
 800233c:	f000 00f0 	and.w	r0, r0, #240	; 0xf0
 8002340:	4286      	cmp	r6, r0
 8002342:	bf3f      	itttt	cc
 8002344:	6893      	ldrcc	r3, [r2, #8]
 8002346:	f023 03f0 	biccc.w	r3, r3, #240	; 0xf0
 800234a:	4333      	orrcc	r3, r6
 800234c:	6093      	strcc	r3, [r2, #8]
 800234e:	e789      	b.n	8002264 <HAL_RCC_ClockConfig+0x2c>
 8002350:	6813      	ldr	r3, [r2, #0]
 8002352:	f023 0307 	bic.w	r3, r3, #7
 8002356:	432b      	orrs	r3, r5
 8002358:	6013      	str	r3, [r2, #0]
 800235a:	6813      	ldr	r3, [r2, #0]
 800235c:	f003 0307 	and.w	r3, r3, #7
 8002360:	42ab      	cmp	r3, r5
 8002362:	f47f af6e 	bne.w	8002242 <HAL_RCC_ClockConfig+0xa>
 8002366:	e783      	b.n	8002270 <HAL_RCC_ClockConfig+0x38>
 8002368:	68ab      	ldr	r3, [r5, #8]
 800236a:	68e2      	ldr	r2, [r4, #12]
 800236c:	f423 63e0 	bic.w	r3, r3, #1792	; 0x700
 8002370:	4313      	orrs	r3, r2
 8002372:	60ab      	str	r3, [r5, #8]
 8002374:	e780      	b.n	8002278 <HAL_RCC_ClockConfig+0x40>
 8002376:	bf00      	nop
 8002378:	40022000 	.word	0x40022000
 800237c:	40021000 	.word	0x40021000
 8002380:	08005974 	.word	0x08005974
 8002384:	20000000 	.word	0x20000000
 8002388:	20000008 	.word	0x20000008

0800238c <HAL_RCC_GetPCLK1Freq>:
 800238c:	4b05      	ldr	r3, [pc, #20]	; (80023a4 <HAL_RCC_GetPCLK1Freq+0x18>)
 800238e:	4a06      	ldr	r2, [pc, #24]	; (80023a8 <HAL_RCC_GetPCLK1Freq+0x1c>)
 8002390:	689b      	ldr	r3, [r3, #8]
 8002392:	f3c3 2302 	ubfx	r3, r3, #8, #3
 8002396:	5cd3      	ldrb	r3, [r2, r3]
 8002398:	4a04      	ldr	r2, [pc, #16]	; (80023ac <HAL_RCC_GetPCLK1Freq+0x20>)
 800239a:	6810      	ldr	r0, [r2, #0]
 800239c:	f003 031f 	and.w	r3, r3, #31
 80023a0:	40d8      	lsrs	r0, r3
 80023a2:	4770      	bx	lr
 80023a4:	40021000 	.word	0x40021000
 80023a8:	08005984 	.word	0x08005984
 80023ac:	20000000 	.word	0x20000000

080023b0 <HAL_RCC_GetPCLK2Freq>:
 80023b0:	4b05      	ldr	r3, [pc, #20]	; (80023c8 <HAL_RCC_GetPCLK2Freq+0x18>)
 80023b2:	4a06      	ldr	r2, [pc, #24]	; (80023cc <HAL_RCC_GetPCLK2Freq+0x1c>)
 80023b4:	689b      	ldr	r3, [r3, #8]
 80023b6:	f3c3 23c2 	ubfx	r3, r3, #11, #3
 80023ba:	5cd3      	ldrb	r3, [r2, r3]
 80023bc:	4a04      	ldr	r2, [pc, #16]	; (80023d0 <HAL_RCC_GetPCLK2Freq+0x20>)
 80023be:	6810      	ldr	r0, [r2, #0]
 80023c0:	f003 031f 	and.w	r3, r3, #31
 80023c4:	40d8      	lsrs	r0, r3
 80023c6:	4770      	bx	lr
 80023c8:	40021000 	.word	0x40021000
 80023cc:	08005984 	.word	0x08005984
 80023d0:	20000000 	.word	0x20000000

080023d4 <HAL_RCC_GetClockConfig>:
 80023d4:	230f      	movs	r3, #15
 80023d6:	6003      	str	r3, [r0, #0]
 80023d8:	4b0b      	ldr	r3, [pc, #44]	; (8002408 <HAL_RCC_GetClockConfig+0x34>)
 80023da:	689a      	ldr	r2, [r3, #8]
 80023dc:	f002 0203 	and.w	r2, r2, #3
 80023e0:	6042      	str	r2, [r0, #4]
 80023e2:	689a      	ldr	r2, [r3, #8]
 80023e4:	f002 02f0 	and.w	r2, r2, #240	; 0xf0
 80023e8:	6082      	str	r2, [r0, #8]
 80023ea:	689a      	ldr	r2, [r3, #8]
 80023ec:	f402 62e0 	and.w	r2, r2, #1792	; 0x700
 80023f0:	60c2      	str	r2, [r0, #12]
 80023f2:	689b      	ldr	r3, [r3, #8]
 80023f4:	08db      	lsrs	r3, r3, #3
 80023f6:	f403 63e0 	and.w	r3, r3, #1792	; 0x700
 80023fa:	6103      	str	r3, [r0, #16]
 80023fc:	4b03      	ldr	r3, [pc, #12]	; (800240c <HAL_RCC_GetClockConfig+0x38>)
 80023fe:	681b      	ldr	r3, [r3, #0]
 8002400:	f003 0307 	and.w	r3, r3, #7
 8002404:	600b      	str	r3, [r1, #0]
 8002406:	4770      	bx	lr
 8002408:	40021000 	.word	0x40021000
 800240c:	40022000 	.word	0x40022000

08002410 <RCCEx_PLLSAI1_Config>:
 8002410:	b5f8      	push	{r3, r4, r5, r6, r7, lr}
 8002412:	4c43      	ldr	r4, [pc, #268]	; (8002520 <RCCEx_PLLSAI1_Config+0x110>)
 8002414:	6803      	ldr	r3, [r0, #0]
 8002416:	68e2      	ldr	r2, [r4, #12]
 8002418:	4605      	mov	r5, r0
 800241a:	0790      	lsls	r0, r2, #30
 800241c:	460e      	mov	r6, r1
 800241e:	d039      	beq.n	8002494 <RCCEx_PLLSAI1_Config+0x84>
 8002420:	68e2      	ldr	r2, [r4, #12]
 8002422:	f002 0203 	and.w	r2, r2, #3
 8002426:	429a      	cmp	r2, r3
 8002428:	d177      	bne.n	800251a <RCCEx_PLLSAI1_Config+0x10a>
 800242a:	2a00      	cmp	r2, #0
 800242c:	d075      	beq.n	800251a <RCCEx_PLLSAI1_Config+0x10a>
 800242e:	68e3      	ldr	r3, [r4, #12]
 8002430:	686a      	ldr	r2, [r5, #4]
 8002432:	f3c3 1302 	ubfx	r3, r3, #4, #3
 8002436:	3301      	adds	r3, #1
 8002438:	4293      	cmp	r3, r2
 800243a:	d16e      	bne.n	800251a <RCCEx_PLLSAI1_Config+0x10a>
 800243c:	6823      	ldr	r3, [r4, #0]
 800243e:	f023 6380 	bic.w	r3, r3, #67108864	; 0x4000000
 8002442:	6023      	str	r3, [r4, #0]
 8002444:	f7fe fda2 	bl	8000f8c <HAL_GetTick>
 8002448:	4607      	mov	r7, r0
 800244a:	6823      	ldr	r3, [r4, #0]
 800244c:	011a      	lsls	r2, r3, #4
 800244e:	d440      	bmi.n	80024d2 <RCCEx_PLLSAI1_Config+0xc2>
 8002450:	68ab      	ldr	r3, [r5, #8]
 8002452:	0218      	lsls	r0, r3, #8
 8002454:	2e00      	cmp	r6, #0
 8002456:	d043      	beq.n	80024e0 <RCCEx_PLLSAI1_Config+0xd0>
 8002458:	2e01      	cmp	r6, #1
 800245a:	d14c      	bne.n	80024f6 <RCCEx_PLLSAI1_Config+0xe6>
 800245c:	692a      	ldr	r2, [r5, #16]
 800245e:	6921      	ldr	r1, [r4, #16]
 8002460:	0852      	lsrs	r2, r2, #1
 8002462:	1e53      	subs	r3, r2, #1
 8002464:	f421 02c0 	bic.w	r2, r1, #6291456	; 0x600000
 8002468:	f422 42fe 	bic.w	r2, r2, #32512	; 0x7f00
 800246c:	4302      	orrs	r2, r0
 800246e:	ea42 5243 	orr.w	r2, r2, r3, lsl #21
 8002472:	6122      	str	r2, [r4, #16]
 8002474:	6823      	ldr	r3, [r4, #0]
 8002476:	f043 6380 	orr.w	r3, r3, #67108864	; 0x4000000
 800247a:	6023      	str	r3, [r4, #0]
 800247c:	f7fe fd86 	bl	8000f8c <HAL_GetTick>
 8002480:	4606      	mov	r6, r0
 8002482:	6823      	ldr	r3, [r4, #0]
 8002484:	011b      	lsls	r3, r3, #4
 8002486:	d542      	bpl.n	800250e <RCCEx_PLLSAI1_Config+0xfe>
 8002488:	6923      	ldr	r3, [r4, #16]
 800248a:	69aa      	ldr	r2, [r5, #24]
 800248c:	4313      	orrs	r3, r2
 800248e:	6123      	str	r3, [r4, #16]
 8002490:	2000      	movs	r0, #0
 8002492:	e024      	b.n	80024de <RCCEx_PLLSAI1_Config+0xce>
 8002494:	2b02      	cmp	r3, #2
 8002496:	d011      	beq.n	80024bc <RCCEx_PLLSAI1_Config+0xac>
 8002498:	2b03      	cmp	r3, #3
 800249a:	d013      	beq.n	80024c4 <RCCEx_PLLSAI1_Config+0xb4>
 800249c:	2b01      	cmp	r3, #1
 800249e:	d13c      	bne.n	800251a <RCCEx_PLLSAI1_Config+0x10a>
 80024a0:	6822      	ldr	r2, [r4, #0]
 80024a2:	f012 0f02 	tst.w	r2, #2
 80024a6:	d038      	beq.n	800251a <RCCEx_PLLSAI1_Config+0x10a>
 80024a8:	68e0      	ldr	r0, [r4, #12]
 80024aa:	686a      	ldr	r2, [r5, #4]
 80024ac:	f020 0073 	bic.w	r0, r0, #115	; 0x73
 80024b0:	3a01      	subs	r2, #1
 80024b2:	4318      	orrs	r0, r3
 80024b4:	ea40 1002 	orr.w	r0, r0, r2, lsl #4
 80024b8:	60e0      	str	r0, [r4, #12]
 80024ba:	e7bf      	b.n	800243c <RCCEx_PLLSAI1_Config+0x2c>
 80024bc:	6822      	ldr	r2, [r4, #0]
 80024be:	f412 6f80 	tst.w	r2, #1024	; 0x400
 80024c2:	e7f0      	b.n	80024a6 <RCCEx_PLLSAI1_Config+0x96>
 80024c4:	6822      	ldr	r2, [r4, #0]
 80024c6:	0391      	lsls	r1, r2, #14
 80024c8:	d4ee      	bmi.n	80024a8 <RCCEx_PLLSAI1_Config+0x98>
 80024ca:	6822      	ldr	r2, [r4, #0]
 80024cc:	f412 2f80 	tst.w	r2, #262144	; 0x40000
 80024d0:	e7e9      	b.n	80024a6 <RCCEx_PLLSAI1_Config+0x96>
 80024d2:	f7fe fd5b 	bl	8000f8c <HAL_GetTick>
 80024d6:	1bc0      	subs	r0, r0, r7
 80024d8:	2802      	cmp	r0, #2
 80024da:	d9b6      	bls.n	800244a <RCCEx_PLLSAI1_Config+0x3a>
 80024dc:	2003      	movs	r0, #3
 80024de:	bdf8      	pop	{r3, r4, r5, r6, r7, pc}
 80024e0:	6922      	ldr	r2, [r4, #16]
 80024e2:	68eb      	ldr	r3, [r5, #12]
 80024e4:	ea40 63c3 	orr.w	r3, r0, r3, lsl #27
 80024e8:	f022 4078 	bic.w	r0, r2, #4160749568	; 0xf8000000
 80024ec:	f420 40fe 	bic.w	r0, r0, #32512	; 0x7f00
 80024f0:	4303      	orrs	r3, r0
 80024f2:	6123      	str	r3, [r4, #16]
 80024f4:	e7be      	b.n	8002474 <RCCEx_PLLSAI1_Config+0x64>
 80024f6:	696b      	ldr	r3, [r5, #20]
 80024f8:	6922      	ldr	r2, [r4, #16]
 80024fa:	085b      	lsrs	r3, r3, #1
 80024fc:	1e59      	subs	r1, r3, #1
 80024fe:	f022 63c0 	bic.w	r3, r2, #100663296	; 0x6000000
 8002502:	f423 43fe 	bic.w	r3, r3, #32512	; 0x7f00
 8002506:	4303      	orrs	r3, r0
 8002508:	ea43 6341 	orr.w	r3, r3, r1, lsl #25
 800250c:	e7f1      	b.n	80024f2 <RCCEx_PLLSAI1_Config+0xe2>
 800250e:	f7fe fd3d 	bl	8000f8c <HAL_GetTick>
 8002512:	1b80      	subs	r0, r0, r6
 8002514:	2802      	cmp	r0, #2
 8002516:	d9b4      	bls.n	8002482 <RCCEx_PLLSAI1_Config+0x72>
 8002518:	e7e0      	b.n	80024dc <RCCEx_PLLSAI1_Config+0xcc>
 800251a:	2001      	movs	r0, #1
 800251c:	e7df      	b.n	80024de <RCCEx_PLLSAI1_Config+0xce>
 800251e:	bf00      	nop
 8002520:	40021000 	.word	0x40021000

08002524 <HAL_RCCEx_PeriphCLKConfig>:
 8002524:	e92d 43f7 	stmdb	sp!, {r0, r1, r2, r4, r5, r6, r7, r8, r9, lr}
 8002528:	6805      	ldr	r5, [r0, #0]
 800252a:	f415 6500 	ands.w	r5, r5, #2048	; 0x800
 800252e:	4604      	mov	r4, r0
 8002530:	d009      	beq.n	8002546 <HAL_RCCEx_PeriphCLKConfig+0x22>
 8002532:	6c41      	ldr	r1, [r0, #68]	; 0x44
 8002534:	f5b1 0f00 	cmp.w	r1, #8388608	; 0x800000
 8002538:	d035      	beq.n	80025a6 <HAL_RCCEx_PeriphCLKConfig+0x82>
 800253a:	f5b1 0f40 	cmp.w	r1, #12582912	; 0xc00000
 800253e:	d037      	beq.n	80025b0 <HAL_RCCEx_PeriphCLKConfig+0x8c>
 8002540:	2900      	cmp	r1, #0
 8002542:	d040      	beq.n	80025c6 <HAL_RCCEx_PeriphCLKConfig+0xa2>
 8002544:	2501      	movs	r5, #1
 8002546:	6823      	ldr	r3, [r4, #0]
 8002548:	0398      	lsls	r0, r3, #14
 800254a:	d551      	bpl.n	80025f0 <HAL_RCCEx_PeriphCLKConfig+0xcc>
 800254c:	4ea0      	ldr	r6, [pc, #640]	; (80027d0 <HAL_RCCEx_PeriphCLKConfig+0x2ac>)
 800254e:	6db3      	ldr	r3, [r6, #88]	; 0x58
 8002550:	00d9      	lsls	r1, r3, #3
 8002552:	d43f      	bmi.n	80025d4 <HAL_RCCEx_PeriphCLKConfig+0xb0>
 8002554:	6db3      	ldr	r3, [r6, #88]	; 0x58
 8002556:	f043 5380 	orr.w	r3, r3, #268435456	; 0x10000000
 800255a:	65b3      	str	r3, [r6, #88]	; 0x58
 800255c:	6db3      	ldr	r3, [r6, #88]	; 0x58
 800255e:	f003 5380 	and.w	r3, r3, #268435456	; 0x10000000
 8002562:	9301      	str	r3, [sp, #4]
 8002564:	9b01      	ldr	r3, [sp, #4]
 8002566:	2701      	movs	r7, #1
 8002568:	f8df 8268 	ldr.w	r8, [pc, #616]	; 80027d4 <HAL_RCCEx_PeriphCLKConfig+0x2b0>
 800256c:	f8d8 3000 	ldr.w	r3, [r8]
 8002570:	f443 7380 	orr.w	r3, r3, #256	; 0x100
 8002574:	f8c8 3000 	str.w	r3, [r8]
 8002578:	f7fe fd08 	bl	8000f8c <HAL_GetTick>
 800257c:	4681      	mov	r9, r0
 800257e:	f8d8 3000 	ldr.w	r3, [r8]
 8002582:	05da      	lsls	r2, r3, #23
 8002584:	d528      	bpl.n	80025d8 <HAL_RCCEx_PeriphCLKConfig+0xb4>
 8002586:	bb75      	cbnz	r5, 80025e6 <HAL_RCCEx_PeriphCLKConfig+0xc2>
 8002588:	f8d6 3090 	ldr.w	r3, [r6, #144]	; 0x90
 800258c:	f413 7340 	ands.w	r3, r3, #768	; 0x300
 8002590:	f040 80dd 	bne.w	800274e <HAL_RCCEx_PeriphCLKConfig+0x22a>
 8002594:	f8d6 3090 	ldr.w	r3, [r6, #144]	; 0x90
 8002598:	6da2      	ldr	r2, [r4, #88]	; 0x58
 800259a:	f423 7340 	bic.w	r3, r3, #768	; 0x300
 800259e:	4313      	orrs	r3, r2
 80025a0:	f8c6 3090 	str.w	r3, [r6, #144]	; 0x90
 80025a4:	e01f      	b.n	80025e6 <HAL_RCCEx_PeriphCLKConfig+0xc2>
 80025a6:	4a8a      	ldr	r2, [pc, #552]	; (80027d0 <HAL_RCCEx_PeriphCLKConfig+0x2ac>)
 80025a8:	68d3      	ldr	r3, [r2, #12]
 80025aa:	f443 3380 	orr.w	r3, r3, #65536	; 0x10000
 80025ae:	60d3      	str	r3, [r2, #12]
 80025b0:	4a87      	ldr	r2, [pc, #540]	; (80027d0 <HAL_RCCEx_PeriphCLKConfig+0x2ac>)
 80025b2:	6c61      	ldr	r1, [r4, #68]	; 0x44
 80025b4:	f8d2 3088 	ldr.w	r3, [r2, #136]	; 0x88
 80025b8:	f423 0340 	bic.w	r3, r3, #12582912	; 0xc00000
 80025bc:	430b      	orrs	r3, r1
 80025be:	f8c2 3088 	str.w	r3, [r2, #136]	; 0x88
 80025c2:	2500      	movs	r5, #0
 80025c4:	e7bf      	b.n	8002546 <HAL_RCCEx_PeriphCLKConfig+0x22>
 80025c6:	3004      	adds	r0, #4
 80025c8:	f7ff ff22 	bl	8002410 <RCCEx_PLLSAI1_Config>
 80025cc:	4605      	mov	r5, r0
 80025ce:	2800      	cmp	r0, #0
 80025d0:	d1b9      	bne.n	8002546 <HAL_RCCEx_PeriphCLKConfig+0x22>
 80025d2:	e7ed      	b.n	80025b0 <HAL_RCCEx_PeriphCLKConfig+0x8c>
 80025d4:	2700      	movs	r7, #0
 80025d6:	e7c7      	b.n	8002568 <HAL_RCCEx_PeriphCLKConfig+0x44>
 80025d8:	f7fe fcd8 	bl	8000f8c <HAL_GetTick>
 80025dc:	eba0 0009 	sub.w	r0, r0, r9
 80025e0:	2802      	cmp	r0, #2
 80025e2:	d9cc      	bls.n	800257e <HAL_RCCEx_PeriphCLKConfig+0x5a>
 80025e4:	2503      	movs	r5, #3
 80025e6:	b11f      	cbz	r7, 80025f0 <HAL_RCCEx_PeriphCLKConfig+0xcc>
 80025e8:	6db3      	ldr	r3, [r6, #88]	; 0x58
 80025ea:	f023 5380 	bic.w	r3, r3, #268435456	; 0x10000000
 80025ee:	65b3      	str	r3, [r6, #88]	; 0x58
 80025f0:	6823      	ldr	r3, [r4, #0]
 80025f2:	07d9      	lsls	r1, r3, #31
 80025f4:	d508      	bpl.n	8002608 <HAL_RCCEx_PeriphCLKConfig+0xe4>
 80025f6:	4976      	ldr	r1, [pc, #472]	; (80027d0 <HAL_RCCEx_PeriphCLKConfig+0x2ac>)
 80025f8:	6a20      	ldr	r0, [r4, #32]
 80025fa:	f8d1 2088 	ldr.w	r2, [r1, #136]	; 0x88
 80025fe:	f022 0203 	bic.w	r2, r2, #3
 8002602:	4302      	orrs	r2, r0
 8002604:	f8c1 2088 	str.w	r2, [r1, #136]	; 0x88
 8002608:	079a      	lsls	r2, r3, #30
 800260a:	d508      	bpl.n	800261e <HAL_RCCEx_PeriphCLKConfig+0xfa>
 800260c:	4970      	ldr	r1, [pc, #448]	; (80027d0 <HAL_RCCEx_PeriphCLKConfig+0x2ac>)
 800260e:	6a60      	ldr	r0, [r4, #36]	; 0x24
 8002610:	f8d1 2088 	ldr.w	r2, [r1, #136]	; 0x88
 8002614:	f022 020c 	bic.w	r2, r2, #12
 8002618:	4302      	orrs	r2, r0
 800261a:	f8c1 2088 	str.w	r2, [r1, #136]	; 0x88
 800261e:	075f      	lsls	r7, r3, #29
 8002620:	d508      	bpl.n	8002634 <HAL_RCCEx_PeriphCLKConfig+0x110>
 8002622:	496b      	ldr	r1, [pc, #428]	; (80027d0 <HAL_RCCEx_PeriphCLKConfig+0x2ac>)
 8002624:	6aa0      	ldr	r0, [r4, #40]	; 0x28
 8002626:	f8d1 2088 	ldr.w	r2, [r1, #136]	; 0x88
 800262a:	f022 0230 	bic.w	r2, r2, #48	; 0x30
 800262e:	4302      	orrs	r2, r0
 8002630:	f8c1 2088 	str.w	r2, [r1, #136]	; 0x88
 8002634:	069e      	lsls	r6, r3, #26
 8002636:	d508      	bpl.n	800264a <HAL_RCCEx_PeriphCLKConfig+0x126>
 8002638:	4965      	ldr	r1, [pc, #404]	; (80027d0 <HAL_RCCEx_PeriphCLKConfig+0x2ac>)
 800263a:	6ae0      	ldr	r0, [r4, #44]	; 0x2c
 800263c:	f8d1 2088 	ldr.w	r2, [r1, #136]	; 0x88
 8002640:	f422 6240 	bic.w	r2, r2, #3072	; 0xc00
 8002644:	4302      	orrs	r2, r0
 8002646:	f8c1 2088 	str.w	r2, [r1, #136]	; 0x88
 800264a:	0598      	lsls	r0, r3, #22
 800264c:	d508      	bpl.n	8002660 <HAL_RCCEx_PeriphCLKConfig+0x13c>
 800264e:	4960      	ldr	r1, [pc, #384]	; (80027d0 <HAL_RCCEx_PeriphCLKConfig+0x2ac>)
 8002650:	6be0      	ldr	r0, [r4, #60]	; 0x3c
 8002652:	f8d1 2088 	ldr.w	r2, [r1, #136]	; 0x88
 8002656:	f422 2240 	bic.w	r2, r2, #786432	; 0xc0000
 800265a:	4302      	orrs	r2, r0
 800265c:	f8c1 2088 	str.w	r2, [r1, #136]	; 0x88
 8002660:	0559      	lsls	r1, r3, #21
 8002662:	d508      	bpl.n	8002676 <HAL_RCCEx_PeriphCLKConfig+0x152>
 8002664:	495a      	ldr	r1, [pc, #360]	; (80027d0 <HAL_RCCEx_PeriphCLKConfig+0x2ac>)
 8002666:	6c20      	ldr	r0, [r4, #64]	; 0x40
 8002668:	f8d1 2088 	ldr.w	r2, [r1, #136]	; 0x88
 800266c:	f422 1240 	bic.w	r2, r2, #3145728	; 0x300000
 8002670:	4302      	orrs	r2, r0
 8002672:	f8c1 2088 	str.w	r2, [r1, #136]	; 0x88
 8002676:	065a      	lsls	r2, r3, #25
 8002678:	d508      	bpl.n	800268c <HAL_RCCEx_PeriphCLKConfig+0x168>
 800267a:	4955      	ldr	r1, [pc, #340]	; (80027d0 <HAL_RCCEx_PeriphCLKConfig+0x2ac>)
 800267c:	6b20      	ldr	r0, [r4, #48]	; 0x30
 800267e:	f8d1 2088 	ldr.w	r2, [r1, #136]	; 0x88
 8002682:	f422 5240 	bic.w	r2, r2, #12288	; 0x3000
 8002686:	4302      	orrs	r2, r0
 8002688:	f8c1 2088 	str.w	r2, [r1, #136]	; 0x88
 800268c:	061f      	lsls	r7, r3, #24
 800268e:	d508      	bpl.n	80026a2 <HAL_RCCEx_PeriphCLKConfig+0x17e>
 8002690:	494f      	ldr	r1, [pc, #316]	; (80027d0 <HAL_RCCEx_PeriphCLKConfig+0x2ac>)
 8002692:	6b60      	ldr	r0, [r4, #52]	; 0x34
 8002694:	f8d1 2088 	ldr.w	r2, [r1, #136]	; 0x88
 8002698:	f422 4240 	bic.w	r2, r2, #49152	; 0xc000
 800269c:	4302      	orrs	r2, r0
 800269e:	f8c1 2088 	str.w	r2, [r1, #136]	; 0x88
 80026a2:	05de      	lsls	r6, r3, #23
 80026a4:	d508      	bpl.n	80026b8 <HAL_RCCEx_PeriphCLKConfig+0x194>
 80026a6:	494a      	ldr	r1, [pc, #296]	; (80027d0 <HAL_RCCEx_PeriphCLKConfig+0x2ac>)
 80026a8:	6ba0      	ldr	r0, [r4, #56]	; 0x38
 80026aa:	f8d1 2088 	ldr.w	r2, [r1, #136]	; 0x88
 80026ae:	f422 3240 	bic.w	r2, r2, #196608	; 0x30000
 80026b2:	4302      	orrs	r2, r0
 80026b4:	f8c1 2088 	str.w	r2, [r1, #136]	; 0x88
 80026b8:	0318      	lsls	r0, r3, #12
 80026ba:	d50f      	bpl.n	80026dc <HAL_RCCEx_PeriphCLKConfig+0x1b8>
 80026bc:	4a44      	ldr	r2, [pc, #272]	; (80027d0 <HAL_RCCEx_PeriphCLKConfig+0x2ac>)
 80026be:	6ca1      	ldr	r1, [r4, #72]	; 0x48
 80026c0:	f8d2 3088 	ldr.w	r3, [r2, #136]	; 0x88
 80026c4:	f023 6340 	bic.w	r3, r3, #201326592	; 0xc000000
 80026c8:	430b      	orrs	r3, r1
 80026ca:	f1b1 6f00 	cmp.w	r1, #134217728	; 0x8000000
 80026ce:	f8c2 3088 	str.w	r3, [r2, #136]	; 0x88
 80026d2:	d166      	bne.n	80027a2 <HAL_RCCEx_PeriphCLKConfig+0x27e>
 80026d4:	68d3      	ldr	r3, [r2, #12]
 80026d6:	f443 1380 	orr.w	r3, r3, #1048576	; 0x100000
 80026da:	60d3      	str	r3, [r2, #12]
 80026dc:	6823      	ldr	r3, [r4, #0]
 80026de:	0359      	lsls	r1, r3, #13
 80026e0:	d50f      	bpl.n	8002702 <HAL_RCCEx_PeriphCLKConfig+0x1de>
 80026e2:	4a3b      	ldr	r2, [pc, #236]	; (80027d0 <HAL_RCCEx_PeriphCLKConfig+0x2ac>)
 80026e4:	6ce1      	ldr	r1, [r4, #76]	; 0x4c
 80026e6:	f8d2 3088 	ldr.w	r3, [r2, #136]	; 0x88
 80026ea:	f023 6340 	bic.w	r3, r3, #201326592	; 0xc000000
 80026ee:	430b      	orrs	r3, r1
 80026f0:	f1b1 6f00 	cmp.w	r1, #134217728	; 0x8000000
 80026f4:	f8c2 3088 	str.w	r3, [r2, #136]	; 0x88
 80026f8:	d15e      	bne.n	80027b8 <HAL_RCCEx_PeriphCLKConfig+0x294>
 80026fa:	68d3      	ldr	r3, [r2, #12]
 80026fc:	f443 1380 	orr.w	r3, r3, #1048576	; 0x100000
 8002700:	60d3      	str	r3, [r2, #12]
 8002702:	6823      	ldr	r3, [r4, #0]
 8002704:	045a      	lsls	r2, r3, #17
 8002706:	d512      	bpl.n	800272e <HAL_RCCEx_PeriphCLKConfig+0x20a>
 8002708:	4931      	ldr	r1, [pc, #196]	; (80027d0 <HAL_RCCEx_PeriphCLKConfig+0x2ac>)
 800270a:	6d22      	ldr	r2, [r4, #80]	; 0x50
 800270c:	f8d1 3088 	ldr.w	r3, [r1, #136]	; 0x88
 8002710:	f023 5340 	bic.w	r3, r3, #805306368	; 0x30000000
 8002714:	4313      	orrs	r3, r2
 8002716:	f1b2 5f80 	cmp.w	r2, #268435456	; 0x10000000
 800271a:	f8c1 3088 	str.w	r3, [r1, #136]	; 0x88
 800271e:	d106      	bne.n	800272e <HAL_RCCEx_PeriphCLKConfig+0x20a>
 8002720:	2102      	movs	r1, #2
 8002722:	1d20      	adds	r0, r4, #4
 8002724:	f7ff fe74 	bl	8002410 <RCCEx_PLLSAI1_Config>
 8002728:	2800      	cmp	r0, #0
 800272a:	bf18      	it	ne
 800272c:	4605      	movne	r5, r0
 800272e:	6823      	ldr	r3, [r4, #0]
 8002730:	041b      	lsls	r3, r3, #16
 8002732:	d508      	bpl.n	8002746 <HAL_RCCEx_PeriphCLKConfig+0x222>
 8002734:	4a26      	ldr	r2, [pc, #152]	; (80027d0 <HAL_RCCEx_PeriphCLKConfig+0x2ac>)
 8002736:	6d61      	ldr	r1, [r4, #84]	; 0x54
 8002738:	f8d2 3088 	ldr.w	r3, [r2, #136]	; 0x88
 800273c:	f023 4380 	bic.w	r3, r3, #1073741824	; 0x40000000
 8002740:	430b      	orrs	r3, r1
 8002742:	f8c2 3088 	str.w	r3, [r2, #136]	; 0x88
 8002746:	4628      	mov	r0, r5
 8002748:	b003      	add	sp, #12
 800274a:	e8bd 83f0 	ldmia.w	sp!, {r4, r5, r6, r7, r8, r9, pc}
 800274e:	6da2      	ldr	r2, [r4, #88]	; 0x58
 8002750:	4293      	cmp	r3, r2
 8002752:	f43f af1f 	beq.w	8002594 <HAL_RCCEx_PeriphCLKConfig+0x70>
 8002756:	f8d6 2090 	ldr.w	r2, [r6, #144]	; 0x90
 800275a:	f8d6 3090 	ldr.w	r3, [r6, #144]	; 0x90
 800275e:	f443 3380 	orr.w	r3, r3, #65536	; 0x10000
 8002762:	f8c6 3090 	str.w	r3, [r6, #144]	; 0x90
 8002766:	f8d6 3090 	ldr.w	r3, [r6, #144]	; 0x90
 800276a:	f423 3380 	bic.w	r3, r3, #65536	; 0x10000
 800276e:	f8c6 3090 	str.w	r3, [r6, #144]	; 0x90
 8002772:	f422 7140 	bic.w	r1, r2, #768	; 0x300
 8002776:	07d3      	lsls	r3, r2, #31
 8002778:	f8c6 1090 	str.w	r1, [r6, #144]	; 0x90
 800277c:	f57f af0a 	bpl.w	8002594 <HAL_RCCEx_PeriphCLKConfig+0x70>
 8002780:	f7fe fc04 	bl	8000f8c <HAL_GetTick>
 8002784:	f241 3988 	movw	r9, #5000	; 0x1388
 8002788:	4680      	mov	r8, r0
 800278a:	f8d6 3090 	ldr.w	r3, [r6, #144]	; 0x90
 800278e:	0798      	lsls	r0, r3, #30
 8002790:	f53f af00 	bmi.w	8002594 <HAL_RCCEx_PeriphCLKConfig+0x70>
 8002794:	f7fe fbfa 	bl	8000f8c <HAL_GetTick>
 8002798:	eba0 0008 	sub.w	r0, r0, r8
 800279c:	4548      	cmp	r0, r9
 800279e:	d9f4      	bls.n	800278a <HAL_RCCEx_PeriphCLKConfig+0x266>
 80027a0:	e720      	b.n	80025e4 <HAL_RCCEx_PeriphCLKConfig+0xc0>
 80027a2:	f1b1 6f80 	cmp.w	r1, #67108864	; 0x4000000
 80027a6:	d199      	bne.n	80026dc <HAL_RCCEx_PeriphCLKConfig+0x1b8>
 80027a8:	2101      	movs	r1, #1
 80027aa:	1d20      	adds	r0, r4, #4
 80027ac:	f7ff fe30 	bl	8002410 <RCCEx_PLLSAI1_Config>
 80027b0:	2800      	cmp	r0, #0
 80027b2:	bf18      	it	ne
 80027b4:	4605      	movne	r5, r0
 80027b6:	e791      	b.n	80026dc <HAL_RCCEx_PeriphCLKConfig+0x1b8>
 80027b8:	f1b1 6f80 	cmp.w	r1, #67108864	; 0x4000000
 80027bc:	d1a1      	bne.n	8002702 <HAL_RCCEx_PeriphCLKConfig+0x1de>
 80027be:	2101      	movs	r1, #1
 80027c0:	1d20      	adds	r0, r4, #4
 80027c2:	f7ff fe25 	bl	8002410 <RCCEx_PLLSAI1_Config>
 80027c6:	2800      	cmp	r0, #0
 80027c8:	bf18      	it	ne
 80027ca:	4605      	movne	r5, r0
 80027cc:	e799      	b.n	8002702 <HAL_RCCEx_PeriphCLKConfig+0x1de>
 80027ce:	bf00      	nop
 80027d0:	40021000 	.word	0x40021000
 80027d4:	40007000 	.word	0x40007000

080027d8 <HAL_SPI_Init>:
 80027d8:	b570      	push	{r4, r5, r6, lr}
 80027da:	4604      	mov	r4, r0
 80027dc:	2800      	cmp	r0, #0
 80027de:	d05f      	beq.n	80028a0 <HAL_SPI_Init+0xc8>
 80027e0:	6a43      	ldr	r3, [r0, #36]	; 0x24
 80027e2:	2b00      	cmp	r3, #0
 80027e4:	d158      	bne.n	8002898 <HAL_SPI_Init+0xc0>
 80027e6:	6842      	ldr	r2, [r0, #4]
 80027e8:	f5b2 7f82 	cmp.w	r2, #260	; 0x104
 80027ec:	d000      	beq.n	80027f0 <HAL_SPI_Init+0x18>
 80027ee:	61c3      	str	r3, [r0, #28]
 80027f0:	2300      	movs	r3, #0
 80027f2:	62a3      	str	r3, [r4, #40]	; 0x28
 80027f4:	f894 305d 	ldrb.w	r3, [r4, #93]	; 0x5d
 80027f8:	f003 02ff 	and.w	r2, r3, #255	; 0xff
 80027fc:	b923      	cbnz	r3, 8002808 <HAL_SPI_Init+0x30>
 80027fe:	f884 205c 	strb.w	r2, [r4, #92]	; 0x5c
 8002802:	4620      	mov	r0, r4
 8002804:	f7fe fa64 	bl	8000cd0 <HAL_SPI_MspInit>
 8002808:	6825      	ldr	r5, [r4, #0]
 800280a:	68e1      	ldr	r1, [r4, #12]
 800280c:	2302      	movs	r3, #2
 800280e:	f884 305d 	strb.w	r3, [r4, #93]	; 0x5d
 8002812:	682b      	ldr	r3, [r5, #0]
 8002814:	f5b1 6fe0 	cmp.w	r1, #1792	; 0x700
 8002818:	f023 0340 	bic.w	r3, r3, #64	; 0x40
 800281c:	602b      	str	r3, [r5, #0]
 800281e:	f04f 0300 	mov.w	r3, #0
 8002822:	d83f      	bhi.n	80028a4 <HAL_SPI_Init+0xcc>
 8002824:	f44f 5080 	mov.w	r0, #4096	; 0x1000
 8002828:	d000      	beq.n	800282c <HAL_SPI_Init+0x54>
 800282a:	62a3      	str	r3, [r4, #40]	; 0x28
 800282c:	6863      	ldr	r3, [r4, #4]
 800282e:	68a6      	ldr	r6, [r4, #8]
 8002830:	69a2      	ldr	r2, [r4, #24]
 8002832:	f406 4604 	and.w	r6, r6, #33792	; 0x8400
 8002836:	f403 7382 	and.w	r3, r3, #260	; 0x104
 800283a:	4333      	orrs	r3, r6
 800283c:	6926      	ldr	r6, [r4, #16]
 800283e:	f006 0602 	and.w	r6, r6, #2
 8002842:	4333      	orrs	r3, r6
 8002844:	6966      	ldr	r6, [r4, #20]
 8002846:	f006 0601 	and.w	r6, r6, #1
 800284a:	4333      	orrs	r3, r6
 800284c:	f402 7600 	and.w	r6, r2, #512	; 0x200
 8002850:	4333      	orrs	r3, r6
 8002852:	69e6      	ldr	r6, [r4, #28]
 8002854:	f006 0638 	and.w	r6, r6, #56	; 0x38
 8002858:	4333      	orrs	r3, r6
 800285a:	6a26      	ldr	r6, [r4, #32]
 800285c:	f006 0680 	and.w	r6, r6, #128	; 0x80
 8002860:	4333      	orrs	r3, r6
 8002862:	6aa6      	ldr	r6, [r4, #40]	; 0x28
 8002864:	f406 5600 	and.w	r6, r6, #8192	; 0x2000
 8002868:	4333      	orrs	r3, r6
 800286a:	602b      	str	r3, [r5, #0]
 800286c:	6b66      	ldr	r6, [r4, #52]	; 0x34
 800286e:	6a63      	ldr	r3, [r4, #36]	; 0x24
 8002870:	f006 0608 	and.w	r6, r6, #8
 8002874:	f003 0310 	and.w	r3, r3, #16
 8002878:	4333      	orrs	r3, r6
 800287a:	f401 6170 	and.w	r1, r1, #3840	; 0xf00
 800287e:	0c12      	lsrs	r2, r2, #16
 8002880:	4319      	orrs	r1, r3
 8002882:	f002 0204 	and.w	r2, r2, #4
 8002886:	430a      	orrs	r2, r1
 8002888:	4310      	orrs	r0, r2
 800288a:	6068      	str	r0, [r5, #4]
 800288c:	2301      	movs	r3, #1
 800288e:	2000      	movs	r0, #0
 8002890:	6620      	str	r0, [r4, #96]	; 0x60
 8002892:	f884 305d 	strb.w	r3, [r4, #93]	; 0x5d
 8002896:	bd70      	pop	{r4, r5, r6, pc}
 8002898:	2300      	movs	r3, #0
 800289a:	e9c0 3304 	strd	r3, r3, [r0, #16]
 800289e:	e7a7      	b.n	80027f0 <HAL_SPI_Init+0x18>
 80028a0:	2001      	movs	r0, #1
 80028a2:	e7f8      	b.n	8002896 <HAL_SPI_Init+0xbe>
 80028a4:	4618      	mov	r0, r3
 80028a6:	f5b1 6f70 	cmp.w	r1, #3840	; 0xf00
 80028aa:	e7bd      	b.n	8002828 <HAL_SPI_Init+0x50>

080028ac <TIM_OC1_SetConfig>:
 80028ac:	6a03      	ldr	r3, [r0, #32]
 80028ae:	f023 0301 	bic.w	r3, r3, #1
 80028b2:	6203      	str	r3, [r0, #32]
 80028b4:	6a03      	ldr	r3, [r0, #32]
 80028b6:	b570      	push	{r4, r5, r6, lr}
 80028b8:	6844      	ldr	r4, [r0, #4]
 80028ba:	6982      	ldr	r2, [r0, #24]
 80028bc:	680d      	ldr	r5, [r1, #0]
 80028be:	f422 3280 	bic.w	r2, r2, #65536	; 0x10000
 80028c2:	f022 0273 	bic.w	r2, r2, #115	; 0x73
 80028c6:	432a      	orrs	r2, r5
 80028c8:	688d      	ldr	r5, [r1, #8]
 80028ca:	f023 0302 	bic.w	r3, r3, #2
 80028ce:	432b      	orrs	r3, r5
 80028d0:	4d12      	ldr	r5, [pc, #72]	; (800291c <TIM_OC1_SetConfig+0x70>)
 80028d2:	42a8      	cmp	r0, r5
 80028d4:	d006      	beq.n	80028e4 <TIM_OC1_SetConfig+0x38>
 80028d6:	4e12      	ldr	r6, [pc, #72]	; (8002920 <TIM_OC1_SetConfig+0x74>)
 80028d8:	42b0      	cmp	r0, r6
 80028da:	d003      	beq.n	80028e4 <TIM_OC1_SetConfig+0x38>
 80028dc:	f506 6680 	add.w	r6, r6, #1024	; 0x400
 80028e0:	42b0      	cmp	r0, r6
 80028e2:	d114      	bne.n	800290e <TIM_OC1_SetConfig+0x62>
 80028e4:	68ce      	ldr	r6, [r1, #12]
 80028e6:	f023 0308 	bic.w	r3, r3, #8
 80028ea:	4333      	orrs	r3, r6
 80028ec:	42a8      	cmp	r0, r5
 80028ee:	f023 0304 	bic.w	r3, r3, #4
 80028f2:	d006      	beq.n	8002902 <TIM_OC1_SetConfig+0x56>
 80028f4:	4d0a      	ldr	r5, [pc, #40]	; (8002920 <TIM_OC1_SetConfig+0x74>)
 80028f6:	42a8      	cmp	r0, r5
 80028f8:	d003      	beq.n	8002902 <TIM_OC1_SetConfig+0x56>
 80028fa:	f505 6580 	add.w	r5, r5, #1024	; 0x400
 80028fe:	42a8      	cmp	r0, r5
 8002900:	d105      	bne.n	800290e <TIM_OC1_SetConfig+0x62>
 8002902:	f424 7540 	bic.w	r5, r4, #768	; 0x300
 8002906:	e9d1 4605 	ldrd	r4, r6, [r1, #20]
 800290a:	4334      	orrs	r4, r6
 800290c:	432c      	orrs	r4, r5
 800290e:	6044      	str	r4, [r0, #4]
 8002910:	6182      	str	r2, [r0, #24]
 8002912:	684a      	ldr	r2, [r1, #4]
 8002914:	6342      	str	r2, [r0, #52]	; 0x34
 8002916:	6203      	str	r3, [r0, #32]
 8002918:	bd70      	pop	{r4, r5, r6, pc}
 800291a:	bf00      	nop
 800291c:	40012c00 	.word	0x40012c00
 8002920:	40014000 	.word	0x40014000

08002924 <TIM_OC3_SetConfig>:
 8002924:	6a03      	ldr	r3, [r0, #32]
 8002926:	f423 7380 	bic.w	r3, r3, #256	; 0x100
 800292a:	6203      	str	r3, [r0, #32]
 800292c:	6a03      	ldr	r3, [r0, #32]
 800292e:	6842      	ldr	r2, [r0, #4]
 8002930:	b570      	push	{r4, r5, r6, lr}
 8002932:	69c4      	ldr	r4, [r0, #28]
 8002934:	680d      	ldr	r5, [r1, #0]
 8002936:	f424 3480 	bic.w	r4, r4, #65536	; 0x10000
 800293a:	f024 0473 	bic.w	r4, r4, #115	; 0x73
 800293e:	432c      	orrs	r4, r5
 8002940:	688d      	ldr	r5, [r1, #8]
 8002942:	f423 7300 	bic.w	r3, r3, #512	; 0x200
 8002946:	ea43 2305 	orr.w	r3, r3, r5, lsl #8
 800294a:	4d0f      	ldr	r5, [pc, #60]	; (8002988 <TIM_OC3_SetConfig+0x64>)
 800294c:	42a8      	cmp	r0, r5
 800294e:	d10e      	bne.n	800296e <TIM_OC3_SetConfig+0x4a>
 8002950:	68cd      	ldr	r5, [r1, #12]
 8002952:	f423 6300 	bic.w	r3, r3, #2048	; 0x800
 8002956:	ea43 2305 	orr.w	r3, r3, r5, lsl #8
 800295a:	f423 6380 	bic.w	r3, r3, #1024	; 0x400
 800295e:	e9d1 5605 	ldrd	r5, r6, [r1, #20]
 8002962:	f422 5240 	bic.w	r2, r2, #12288	; 0x3000
 8002966:	4335      	orrs	r5, r6
 8002968:	ea42 1205 	orr.w	r2, r2, r5, lsl #4
 800296c:	e005      	b.n	800297a <TIM_OC3_SetConfig+0x56>
 800296e:	4d07      	ldr	r5, [pc, #28]	; (800298c <TIM_OC3_SetConfig+0x68>)
 8002970:	42a8      	cmp	r0, r5
 8002972:	d0f4      	beq.n	800295e <TIM_OC3_SetConfig+0x3a>
 8002974:	4d06      	ldr	r5, [pc, #24]	; (8002990 <TIM_OC3_SetConfig+0x6c>)
 8002976:	42a8      	cmp	r0, r5
 8002978:	d0f1      	beq.n	800295e <TIM_OC3_SetConfig+0x3a>
 800297a:	6042      	str	r2, [r0, #4]
 800297c:	684a      	ldr	r2, [r1, #4]
 800297e:	61c4      	str	r4, [r0, #28]
 8002980:	63c2      	str	r2, [r0, #60]	; 0x3c
 8002982:	6203      	str	r3, [r0, #32]
 8002984:	bd70      	pop	{r4, r5, r6, pc}
 8002986:	bf00      	nop
 8002988:	40012c00 	.word	0x40012c00
 800298c:	40014000 	.word	0x40014000
 8002990:	40014400 	.word	0x40014400

08002994 <TIM_OC4_SetConfig>:
 8002994:	6a03      	ldr	r3, [r0, #32]
 8002996:	f423 5380 	bic.w	r3, r3, #4096	; 0x1000
 800299a:	6203      	str	r3, [r0, #32]
 800299c:	6a02      	ldr	r2, [r0, #32]
 800299e:	b530      	push	{r4, r5, lr}
 80029a0:	6844      	ldr	r4, [r0, #4]
 80029a2:	69c3      	ldr	r3, [r0, #28]
 80029a4:	680d      	ldr	r5, [r1, #0]
 80029a6:	f023 7380 	bic.w	r3, r3, #16777216	; 0x1000000
 80029aa:	f423 43e6 	bic.w	r3, r3, #29440	; 0x7300
 80029ae:	ea43 2305 	orr.w	r3, r3, r5, lsl #8
 80029b2:	688d      	ldr	r5, [r1, #8]
 80029b4:	f422 5200 	bic.w	r2, r2, #8192	; 0x2000
 80029b8:	ea42 3205 	orr.w	r2, r2, r5, lsl #12
 80029bc:	4d0a      	ldr	r5, [pc, #40]	; (80029e8 <TIM_OC4_SetConfig+0x54>)
 80029be:	42a8      	cmp	r0, r5
 80029c0:	d007      	beq.n	80029d2 <TIM_OC4_SetConfig+0x3e>
 80029c2:	f505 55a0 	add.w	r5, r5, #5120	; 0x1400
 80029c6:	42a8      	cmp	r0, r5
 80029c8:	d003      	beq.n	80029d2 <TIM_OC4_SetConfig+0x3e>
 80029ca:	f505 6580 	add.w	r5, r5, #1024	; 0x400
 80029ce:	42a8      	cmp	r0, r5
 80029d0:	d104      	bne.n	80029dc <TIM_OC4_SetConfig+0x48>
 80029d2:	694d      	ldr	r5, [r1, #20]
 80029d4:	f424 4480 	bic.w	r4, r4, #16384	; 0x4000
 80029d8:	ea44 1485 	orr.w	r4, r4, r5, lsl #6
 80029dc:	6044      	str	r4, [r0, #4]
 80029de:	61c3      	str	r3, [r0, #28]
 80029e0:	684b      	ldr	r3, [r1, #4]
 80029e2:	6403      	str	r3, [r0, #64]	; 0x40
 80029e4:	6202      	str	r2, [r0, #32]
 80029e6:	bd30      	pop	{r4, r5, pc}
 80029e8:	40012c00 	.word	0x40012c00

080029ec <TIM_OC5_SetConfig>:
 80029ec:	6a03      	ldr	r3, [r0, #32]
 80029ee:	f423 3380 	bic.w	r3, r3, #65536	; 0x10000
 80029f2:	6203      	str	r3, [r0, #32]
 80029f4:	6a02      	ldr	r2, [r0, #32]
 80029f6:	b530      	push	{r4, r5, lr}
 80029f8:	6844      	ldr	r4, [r0, #4]
 80029fa:	6d43      	ldr	r3, [r0, #84]	; 0x54
 80029fc:	680d      	ldr	r5, [r1, #0]
 80029fe:	f423 3380 	bic.w	r3, r3, #65536	; 0x10000
 8002a02:	f023 0370 	bic.w	r3, r3, #112	; 0x70
 8002a06:	432b      	orrs	r3, r5
 8002a08:	688d      	ldr	r5, [r1, #8]
 8002a0a:	f422 3200 	bic.w	r2, r2, #131072	; 0x20000
 8002a0e:	ea42 4205 	orr.w	r2, r2, r5, lsl #16
 8002a12:	4d0b      	ldr	r5, [pc, #44]	; (8002a40 <TIM_OC5_SetConfig+0x54>)
 8002a14:	42a8      	cmp	r0, r5
 8002a16:	d007      	beq.n	8002a28 <TIM_OC5_SetConfig+0x3c>
 8002a18:	f505 55a0 	add.w	r5, r5, #5120	; 0x1400
 8002a1c:	42a8      	cmp	r0, r5
 8002a1e:	d003      	beq.n	8002a28 <TIM_OC5_SetConfig+0x3c>
 8002a20:	f505 6580 	add.w	r5, r5, #1024	; 0x400
 8002a24:	42a8      	cmp	r0, r5
 8002a26:	d104      	bne.n	8002a32 <TIM_OC5_SetConfig+0x46>
 8002a28:	694d      	ldr	r5, [r1, #20]
 8002a2a:	f424 3480 	bic.w	r4, r4, #65536	; 0x10000
 8002a2e:	ea44 2405 	orr.w	r4, r4, r5, lsl #8
 8002a32:	6044      	str	r4, [r0, #4]
 8002a34:	6543      	str	r3, [r0, #84]	; 0x54
 8002a36:	684b      	ldr	r3, [r1, #4]
 8002a38:	6583      	str	r3, [r0, #88]	; 0x58
 8002a3a:	6202      	str	r2, [r0, #32]
 8002a3c:	bd30      	pop	{r4, r5, pc}
 8002a3e:	bf00      	nop
 8002a40:	40012c00 	.word	0x40012c00

08002a44 <TIM_OC6_SetConfig>:
 8002a44:	6a03      	ldr	r3, [r0, #32]
 8002a46:	f423 1380 	bic.w	r3, r3, #1048576	; 0x100000
 8002a4a:	6203      	str	r3, [r0, #32]
 8002a4c:	6a02      	ldr	r2, [r0, #32]
 8002a4e:	b530      	push	{r4, r5, lr}
 8002a50:	6844      	ldr	r4, [r0, #4]
 8002a52:	6d43      	ldr	r3, [r0, #84]	; 0x54
 8002a54:	680d      	ldr	r5, [r1, #0]
 8002a56:	f023 7380 	bic.w	r3, r3, #16777216	; 0x1000000
 8002a5a:	f423 43e0 	bic.w	r3, r3, #28672	; 0x7000
 8002a5e:	ea43 2305 	orr.w	r3, r3, r5, lsl #8
 8002a62:	688d      	ldr	r5, [r1, #8]
 8002a64:	f422 1200 	bic.w	r2, r2, #2097152	; 0x200000
 8002a68:	ea42 5205 	orr.w	r2, r2, r5, lsl #20
 8002a6c:	4d0a      	ldr	r5, [pc, #40]	; (8002a98 <TIM_OC6_SetConfig+0x54>)
 8002a6e:	42a8      	cmp	r0, r5
 8002a70:	d007      	beq.n	8002a82 <TIM_OC6_SetConfig+0x3e>
 8002a72:	f505 55a0 	add.w	r5, r5, #5120	; 0x1400
 8002a76:	42a8      	cmp	r0, r5
 8002a78:	d003      	beq.n	8002a82 <TIM_OC6_SetConfig+0x3e>
 8002a7a:	f505 6580 	add.w	r5, r5, #1024	; 0x400
 8002a7e:	42a8      	cmp	r0, r5
 8002a80:	d104      	bne.n	8002a8c <TIM_OC6_SetConfig+0x48>
 8002a82:	694d      	ldr	r5, [r1, #20]
 8002a84:	f424 2480 	bic.w	r4, r4, #262144	; 0x40000
 8002a88:	ea44 2485 	orr.w	r4, r4, r5, lsl #10
 8002a8c:	6044      	str	r4, [r0, #4]
 8002a8e:	6543      	str	r3, [r0, #84]	; 0x54
 8002a90:	684b      	ldr	r3, [r1, #4]
 8002a92:	65c3      	str	r3, [r0, #92]	; 0x5c
 8002a94:	6202      	str	r2, [r0, #32]
 8002a96:	bd30      	pop	{r4, r5, pc}
 8002a98:	40012c00 	.word	0x40012c00

08002a9c <HAL_TIM_Base_MspInit>:
 8002a9c:	4770      	bx	lr
	...

08002aa0 <HAL_TIM_Base_Start_IT>:
 8002aa0:	f890 303d 	ldrb.w	r3, [r0, #61]	; 0x3d
 8002aa4:	2b01      	cmp	r3, #1
 8002aa6:	d11f      	bne.n	8002ae8 <HAL_TIM_Base_Start_IT+0x48>
 8002aa8:	2302      	movs	r3, #2
 8002aaa:	f880 303d 	strb.w	r3, [r0, #61]	; 0x3d
 8002aae:	6803      	ldr	r3, [r0, #0]
 8002ab0:	68da      	ldr	r2, [r3, #12]
 8002ab2:	f042 0201 	orr.w	r2, r2, #1
 8002ab6:	60da      	str	r2, [r3, #12]
 8002ab8:	4a0c      	ldr	r2, [pc, #48]	; (8002aec <HAL_TIM_Base_Start_IT+0x4c>)
 8002aba:	4293      	cmp	r3, r2
 8002abc:	d006      	beq.n	8002acc <HAL_TIM_Base_Start_IT+0x2c>
 8002abe:	f1b3 4f80 	cmp.w	r3, #1073741824	; 0x40000000
 8002ac2:	d003      	beq.n	8002acc <HAL_TIM_Base_Start_IT+0x2c>
 8002ac4:	f502 52a0 	add.w	r2, r2, #5120	; 0x1400
 8002ac8:	4293      	cmp	r3, r2
 8002aca:	d107      	bne.n	8002adc <HAL_TIM_Base_Start_IT+0x3c>
 8002acc:	6899      	ldr	r1, [r3, #8]
 8002ace:	4a08      	ldr	r2, [pc, #32]	; (8002af0 <HAL_TIM_Base_Start_IT+0x50>)
 8002ad0:	400a      	ands	r2, r1
 8002ad2:	2a06      	cmp	r2, #6
 8002ad4:	d006      	beq.n	8002ae4 <HAL_TIM_Base_Start_IT+0x44>
 8002ad6:	f5b2 3f80 	cmp.w	r2, #65536	; 0x10000
 8002ada:	d003      	beq.n	8002ae4 <HAL_TIM_Base_Start_IT+0x44>
 8002adc:	681a      	ldr	r2, [r3, #0]
 8002ade:	f042 0201 	orr.w	r2, r2, #1
 8002ae2:	601a      	str	r2, [r3, #0]
 8002ae4:	2000      	movs	r0, #0
 8002ae6:	4770      	bx	lr
 8002ae8:	2001      	movs	r0, #1
 8002aea:	4770      	bx	lr
 8002aec:	40012c00 	.word	0x40012c00
 8002af0:	00010007 	.word	0x00010007

08002af4 <HAL_TIM_OC_DelayElapsedCallback>:
 8002af4:	4770      	bx	lr

08002af6 <HAL_TIM_IC_CaptureCallback>:
 8002af6:	4770      	bx	lr

08002af8 <HAL_TIM_PWM_PulseFinishedCallback>:
 8002af8:	4770      	bx	lr

08002afa <HAL_TIM_TriggerCallback>:
 8002afa:	4770      	bx	lr

08002afc <HAL_TIM_IRQHandler>:
 8002afc:	6803      	ldr	r3, [r0, #0]
 8002afe:	691a      	ldr	r2, [r3, #16]
 8002b00:	0791      	lsls	r1, r2, #30
 8002b02:	b510      	push	{r4, lr}
 8002b04:	4604      	mov	r4, r0
 8002b06:	d50f      	bpl.n	8002b28 <HAL_TIM_IRQHandler+0x2c>
 8002b08:	68da      	ldr	r2, [r3, #12]
 8002b0a:	0792      	lsls	r2, r2, #30
 8002b0c:	d50c      	bpl.n	8002b28 <HAL_TIM_IRQHandler+0x2c>
 8002b0e:	f06f 0202 	mvn.w	r2, #2
 8002b12:	611a      	str	r2, [r3, #16]
 8002b14:	2201      	movs	r2, #1
 8002b16:	7702      	strb	r2, [r0, #28]
 8002b18:	699b      	ldr	r3, [r3, #24]
 8002b1a:	0799      	lsls	r1, r3, #30
 8002b1c:	f000 8085 	beq.w	8002c2a <HAL_TIM_IRQHandler+0x12e>
 8002b20:	f7ff ffe9 	bl	8002af6 <HAL_TIM_IC_CaptureCallback>
 8002b24:	2300      	movs	r3, #0
 8002b26:	7723      	strb	r3, [r4, #28]
 8002b28:	6823      	ldr	r3, [r4, #0]
 8002b2a:	691a      	ldr	r2, [r3, #16]
 8002b2c:	0752      	lsls	r2, r2, #29
 8002b2e:	d510      	bpl.n	8002b52 <HAL_TIM_IRQHandler+0x56>
 8002b30:	68da      	ldr	r2, [r3, #12]
 8002b32:	0750      	lsls	r0, r2, #29
 8002b34:	d50d      	bpl.n	8002b52 <HAL_TIM_IRQHandler+0x56>
 8002b36:	f06f 0204 	mvn.w	r2, #4
 8002b3a:	611a      	str	r2, [r3, #16]
 8002b3c:	2202      	movs	r2, #2
 8002b3e:	7722      	strb	r2, [r4, #28]
 8002b40:	699b      	ldr	r3, [r3, #24]
 8002b42:	f413 7f40 	tst.w	r3, #768	; 0x300
 8002b46:	4620      	mov	r0, r4
 8002b48:	d075      	beq.n	8002c36 <HAL_TIM_IRQHandler+0x13a>
 8002b4a:	f7ff ffd4 	bl	8002af6 <HAL_TIM_IC_CaptureCallback>
 8002b4e:	2300      	movs	r3, #0
 8002b50:	7723      	strb	r3, [r4, #28]
 8002b52:	6823      	ldr	r3, [r4, #0]
 8002b54:	691a      	ldr	r2, [r3, #16]
 8002b56:	0711      	lsls	r1, r2, #28
 8002b58:	d50f      	bpl.n	8002b7a <HAL_TIM_IRQHandler+0x7e>
 8002b5a:	68da      	ldr	r2, [r3, #12]
 8002b5c:	0712      	lsls	r2, r2, #28
 8002b5e:	d50c      	bpl.n	8002b7a <HAL_TIM_IRQHandler+0x7e>
 8002b60:	f06f 0208 	mvn.w	r2, #8
 8002b64:	611a      	str	r2, [r3, #16]
 8002b66:	2204      	movs	r2, #4
 8002b68:	7722      	strb	r2, [r4, #28]
 8002b6a:	69db      	ldr	r3, [r3, #28]
 8002b6c:	079b      	lsls	r3, r3, #30
 8002b6e:	4620      	mov	r0, r4
 8002b70:	d067      	beq.n	8002c42 <HAL_TIM_IRQHandler+0x146>
 8002b72:	f7ff ffc0 	bl	8002af6 <HAL_TIM_IC_CaptureCallback>
 8002b76:	2300      	movs	r3, #0
 8002b78:	7723      	strb	r3, [r4, #28]
 8002b7a:	6823      	ldr	r3, [r4, #0]
 8002b7c:	691a      	ldr	r2, [r3, #16]
 8002b7e:	06d0      	lsls	r0, r2, #27
 8002b80:	d510      	bpl.n	8002ba4 <HAL_TIM_IRQHandler+0xa8>
 8002b82:	68da      	ldr	r2, [r3, #12]
 8002b84:	06d1      	lsls	r1, r2, #27
 8002b86:	d50d      	bpl.n	8002ba4 <HAL_TIM_IRQHandler+0xa8>
 8002b88:	f06f 0210 	mvn.w	r2, #16
 8002b8c:	611a      	str	r2, [r3, #16]
 8002b8e:	2208      	movs	r2, #8
 8002b90:	7722      	strb	r2, [r4, #28]
 8002b92:	69db      	ldr	r3, [r3, #28]
 8002b94:	f413 7f40 	tst.w	r3, #768	; 0x300
 8002b98:	4620      	mov	r0, r4
 8002b9a:	d058      	beq.n	8002c4e <HAL_TIM_IRQHandler+0x152>
 8002b9c:	f7ff ffab 	bl	8002af6 <HAL_TIM_IC_CaptureCallback>
 8002ba0:	2300      	movs	r3, #0
 8002ba2:	7723      	strb	r3, [r4, #28]
 8002ba4:	6823      	ldr	r3, [r4, #0]
 8002ba6:	691a      	ldr	r2, [r3, #16]
 8002ba8:	07d2      	lsls	r2, r2, #31
 8002baa:	d508      	bpl.n	8002bbe <HAL_TIM_IRQHandler+0xc2>
 8002bac:	68da      	ldr	r2, [r3, #12]
 8002bae:	07d0      	lsls	r0, r2, #31
 8002bb0:	d505      	bpl.n	8002bbe <HAL_TIM_IRQHandler+0xc2>
 8002bb2:	f06f 0201 	mvn.w	r2, #1
 8002bb6:	611a      	str	r2, [r3, #16]
 8002bb8:	4620      	mov	r0, r4
 8002bba:	f7fd fe1d 	bl	80007f8 <HAL_TIM_PeriodElapsedCallback>
 8002bbe:	6823      	ldr	r3, [r4, #0]
 8002bc0:	691a      	ldr	r2, [r3, #16]
 8002bc2:	0611      	lsls	r1, r2, #24
 8002bc4:	d508      	bpl.n	8002bd8 <HAL_TIM_IRQHandler+0xdc>
 8002bc6:	68da      	ldr	r2, [r3, #12]
 8002bc8:	0612      	lsls	r2, r2, #24
 8002bca:	d505      	bpl.n	8002bd8 <HAL_TIM_IRQHandler+0xdc>
 8002bcc:	f06f 0280 	mvn.w	r2, #128	; 0x80
 8002bd0:	611a      	str	r2, [r3, #16]
 8002bd2:	4620      	mov	r0, r4
 8002bd4:	f000 f9c9 	bl	8002f6a <HAL_TIMEx_BreakCallback>
 8002bd8:	6823      	ldr	r3, [r4, #0]
 8002bda:	691a      	ldr	r2, [r3, #16]
 8002bdc:	05d0      	lsls	r0, r2, #23
 8002bde:	d508      	bpl.n	8002bf2 <HAL_TIM_IRQHandler+0xf6>
 8002be0:	68da      	ldr	r2, [r3, #12]
 8002be2:	0611      	lsls	r1, r2, #24
 8002be4:	d505      	bpl.n	8002bf2 <HAL_TIM_IRQHandler+0xf6>
 8002be6:	f46f 7280 	mvn.w	r2, #256	; 0x100
 8002bea:	611a      	str	r2, [r3, #16]
 8002bec:	4620      	mov	r0, r4
 8002bee:	f000 f9bd 	bl	8002f6c <HAL_TIMEx_Break2Callback>
 8002bf2:	6823      	ldr	r3, [r4, #0]
 8002bf4:	691a      	ldr	r2, [r3, #16]
 8002bf6:	0652      	lsls	r2, r2, #25
 8002bf8:	d508      	bpl.n	8002c0c <HAL_TIM_IRQHandler+0x110>
 8002bfa:	68da      	ldr	r2, [r3, #12]
 8002bfc:	0650      	lsls	r0, r2, #25
 8002bfe:	d505      	bpl.n	8002c0c <HAL_TIM_IRQHandler+0x110>
 8002c00:	f06f 0240 	mvn.w	r2, #64	; 0x40
 8002c04:	611a      	str	r2, [r3, #16]
 8002c06:	4620      	mov	r0, r4
 8002c08:	f7ff ff77 	bl	8002afa <HAL_TIM_TriggerCallback>
 8002c0c:	6823      	ldr	r3, [r4, #0]
 8002c0e:	691a      	ldr	r2, [r3, #16]
 8002c10:	0691      	lsls	r1, r2, #26
 8002c12:	d522      	bpl.n	8002c5a <HAL_TIM_IRQHandler+0x15e>
 8002c14:	68da      	ldr	r2, [r3, #12]
 8002c16:	0692      	lsls	r2, r2, #26
 8002c18:	d51f      	bpl.n	8002c5a <HAL_TIM_IRQHandler+0x15e>
 8002c1a:	f06f 0220 	mvn.w	r2, #32
 8002c1e:	4620      	mov	r0, r4
 8002c20:	611a      	str	r2, [r3, #16]
 8002c22:	e8bd 4010 	ldmia.w	sp!, {r4, lr}
 8002c26:	f000 b99f 	b.w	8002f68 <HAL_TIMEx_CommutCallback>
 8002c2a:	f7ff ff63 	bl	8002af4 <HAL_TIM_OC_DelayElapsedCallback>
 8002c2e:	4620      	mov	r0, r4
 8002c30:	f7ff ff62 	bl	8002af8 <HAL_TIM_PWM_PulseFinishedCallback>
 8002c34:	e776      	b.n	8002b24 <HAL_TIM_IRQHandler+0x28>
 8002c36:	f7ff ff5d 	bl	8002af4 <HAL_TIM_OC_DelayElapsedCallback>
 8002c3a:	4620      	mov	r0, r4
 8002c3c:	f7ff ff5c 	bl	8002af8 <HAL_TIM_PWM_PulseFinishedCallback>
 8002c40:	e785      	b.n	8002b4e <HAL_TIM_IRQHandler+0x52>
 8002c42:	f7ff ff57 	bl	8002af4 <HAL_TIM_OC_DelayElapsedCallback>
 8002c46:	4620      	mov	r0, r4
 8002c48:	f7ff ff56 	bl	8002af8 <HAL_TIM_PWM_PulseFinishedCallback>
 8002c4c:	e793      	b.n	8002b76 <HAL_TIM_IRQHandler+0x7a>
 8002c4e:	f7ff ff51 	bl	8002af4 <HAL_TIM_OC_DelayElapsedCallback>
 8002c52:	4620      	mov	r0, r4
 8002c54:	f7ff ff50 	bl	8002af8 <HAL_TIM_PWM_PulseFinishedCallback>
 8002c58:	e7a2      	b.n	8002ba0 <HAL_TIM_IRQHandler+0xa4>
 8002c5a:	bd10      	pop	{r4, pc}

08002c5c <TIM_Base_SetConfig>:
 8002c5c:	4a1a      	ldr	r2, [pc, #104]	; (8002cc8 <TIM_Base_SetConfig+0x6c>)
 8002c5e:	6803      	ldr	r3, [r0, #0]
 8002c60:	4290      	cmp	r0, r2
 8002c62:	b510      	push	{r4, lr}
 8002c64:	d002      	beq.n	8002c6c <TIM_Base_SetConfig+0x10>
 8002c66:	f1b0 4f80 	cmp.w	r0, #1073741824	; 0x40000000
 8002c6a:	d109      	bne.n	8002c80 <TIM_Base_SetConfig+0x24>
 8002c6c:	684c      	ldr	r4, [r1, #4]
 8002c6e:	f023 0370 	bic.w	r3, r3, #112	; 0x70
 8002c72:	4290      	cmp	r0, r2
 8002c74:	ea43 0304 	orr.w	r3, r3, r4
 8002c78:	d009      	beq.n	8002c8e <TIM_Base_SetConfig+0x32>
 8002c7a:	f1b0 4f80 	cmp.w	r0, #1073741824	; 0x40000000
 8002c7e:	d006      	beq.n	8002c8e <TIM_Base_SetConfig+0x32>
 8002c80:	4a12      	ldr	r2, [pc, #72]	; (8002ccc <TIM_Base_SetConfig+0x70>)
 8002c82:	4290      	cmp	r0, r2
 8002c84:	d003      	beq.n	8002c8e <TIM_Base_SetConfig+0x32>
 8002c86:	f502 6280 	add.w	r2, r2, #1024	; 0x400
 8002c8a:	4290      	cmp	r0, r2
 8002c8c:	d103      	bne.n	8002c96 <TIM_Base_SetConfig+0x3a>
 8002c8e:	68ca      	ldr	r2, [r1, #12]
 8002c90:	f423 7340 	bic.w	r3, r3, #768	; 0x300
 8002c94:	4313      	orrs	r3, r2
 8002c96:	694a      	ldr	r2, [r1, #20]
 8002c98:	f023 0380 	bic.w	r3, r3, #128	; 0x80
 8002c9c:	4313      	orrs	r3, r2
 8002c9e:	6003      	str	r3, [r0, #0]
 8002ca0:	688b      	ldr	r3, [r1, #8]
 8002ca2:	62c3      	str	r3, [r0, #44]	; 0x2c
 8002ca4:	680b      	ldr	r3, [r1, #0]
 8002ca6:	6283      	str	r3, [r0, #40]	; 0x28
 8002ca8:	4b07      	ldr	r3, [pc, #28]	; (8002cc8 <TIM_Base_SetConfig+0x6c>)
 8002caa:	4298      	cmp	r0, r3
 8002cac:	d007      	beq.n	8002cbe <TIM_Base_SetConfig+0x62>
 8002cae:	f503 53a0 	add.w	r3, r3, #5120	; 0x1400
 8002cb2:	4298      	cmp	r0, r3
 8002cb4:	d003      	beq.n	8002cbe <TIM_Base_SetConfig+0x62>
 8002cb6:	f503 6380 	add.w	r3, r3, #1024	; 0x400
 8002cba:	4298      	cmp	r0, r3
 8002cbc:	d101      	bne.n	8002cc2 <TIM_Base_SetConfig+0x66>
 8002cbe:	690b      	ldr	r3, [r1, #16]
 8002cc0:	6303      	str	r3, [r0, #48]	; 0x30
 8002cc2:	2301      	movs	r3, #1
 8002cc4:	6143      	str	r3, [r0, #20]
 8002cc6:	bd10      	pop	{r4, pc}
 8002cc8:	40012c00 	.word	0x40012c00
 8002ccc:	40014000 	.word	0x40014000

08002cd0 <HAL_TIM_Base_Init>:
 8002cd0:	b510      	push	{r4, lr}
 8002cd2:	4604      	mov	r4, r0
 8002cd4:	b350      	cbz	r0, 8002d2c <HAL_TIM_Base_Init+0x5c>
 8002cd6:	f890 303d 	ldrb.w	r3, [r0, #61]	; 0x3d
 8002cda:	f003 02ff 	and.w	r2, r3, #255	; 0xff
 8002cde:	b91b      	cbnz	r3, 8002ce8 <HAL_TIM_Base_Init+0x18>
 8002ce0:	f880 203c 	strb.w	r2, [r0, #60]	; 0x3c
 8002ce4:	f7ff feda 	bl	8002a9c <HAL_TIM_Base_MspInit>
 8002ce8:	2302      	movs	r3, #2
 8002cea:	6820      	ldr	r0, [r4, #0]
 8002cec:	f884 303d 	strb.w	r3, [r4, #61]	; 0x3d
 8002cf0:	1d21      	adds	r1, r4, #4
 8002cf2:	f7ff ffb3 	bl	8002c5c <TIM_Base_SetConfig>
 8002cf6:	2301      	movs	r3, #1
 8002cf8:	f884 3048 	strb.w	r3, [r4, #72]	; 0x48
 8002cfc:	2000      	movs	r0, #0
 8002cfe:	f884 303e 	strb.w	r3, [r4, #62]	; 0x3e
 8002d02:	f884 303f 	strb.w	r3, [r4, #63]	; 0x3f
 8002d06:	f884 3040 	strb.w	r3, [r4, #64]	; 0x40
 8002d0a:	f884 3041 	strb.w	r3, [r4, #65]	; 0x41
 8002d0e:	f884 3042 	strb.w	r3, [r4, #66]	; 0x42
 8002d12:	f884 3043 	strb.w	r3, [r4, #67]	; 0x43
 8002d16:	f884 3044 	strb.w	r3, [r4, #68]	; 0x44
 8002d1a:	f884 3045 	strb.w	r3, [r4, #69]	; 0x45
 8002d1e:	f884 3046 	strb.w	r3, [r4, #70]	; 0x46
 8002d22:	f884 3047 	strb.w	r3, [r4, #71]	; 0x47
 8002d26:	f884 303d 	strb.w	r3, [r4, #61]	; 0x3d
 8002d2a:	bd10      	pop	{r4, pc}
 8002d2c:	2001      	movs	r0, #1
 8002d2e:	e7fc      	b.n	8002d2a <HAL_TIM_Base_Init+0x5a>

08002d30 <HAL_TIM_PWM_Init>:
 8002d30:	b510      	push	{r4, lr}
 8002d32:	4604      	mov	r4, r0
 8002d34:	b350      	cbz	r0, 8002d8c <HAL_TIM_PWM_Init+0x5c>
 8002d36:	f890 303d 	ldrb.w	r3, [r0, #61]	; 0x3d
 8002d3a:	f003 02ff 	and.w	r2, r3, #255	; 0xff
 8002d3e:	b91b      	cbnz	r3, 8002d48 <HAL_TIM_PWM_Init+0x18>
 8002d40:	f880 203c 	strb.w	r2, [r0, #60]	; 0x3c
 8002d44:	f7fd fff6 	bl	8000d34 <HAL_TIM_PWM_MspInit>
 8002d48:	2302      	movs	r3, #2
 8002d4a:	6820      	ldr	r0, [r4, #0]
 8002d4c:	f884 303d 	strb.w	r3, [r4, #61]	; 0x3d
 8002d50:	1d21      	adds	r1, r4, #4
 8002d52:	f7ff ff83 	bl	8002c5c <TIM_Base_SetConfig>
 8002d56:	2301      	movs	r3, #1
 8002d58:	f884 3048 	strb.w	r3, [r4, #72]	; 0x48
 8002d5c:	2000      	movs	r0, #0
 8002d5e:	f884 303e 	strb.w	r3, [r4, #62]	; 0x3e
 8002d62:	f884 303f 	strb.w	r3, [r4, #63]	; 0x3f
 8002d66:	f884 3040 	strb.w	r3, [r4, #64]	; 0x40
 8002d6a:	f884 3041 	strb.w	r3, [r4, #65]	; 0x41
 8002d6e:	f884 3042 	strb.w	r3, [r4, #66]	; 0x42
 8002d72:	f884 3043 	strb.w	r3, [r4, #67]	; 0x43
 8002d76:	f884 3044 	strb.w	r3, [r4, #68]	; 0x44
 8002d7a:	f884 3045 	strb.w	r3, [r4, #69]	; 0x45
 8002d7e:	f884 3046 	strb.w	r3, [r4, #70]	; 0x46
 8002d82:	f884 3047 	strb.w	r3, [r4, #71]	; 0x47
 8002d86:	f884 303d 	strb.w	r3, [r4, #61]	; 0x3d
 8002d8a:	bd10      	pop	{r4, pc}
 8002d8c:	2001      	movs	r0, #1
 8002d8e:	e7fc      	b.n	8002d8a <HAL_TIM_PWM_Init+0x5a>

08002d90 <TIM_OC2_SetConfig>:
 8002d90:	6a03      	ldr	r3, [r0, #32]
 8002d92:	f023 0310 	bic.w	r3, r3, #16
 8002d96:	6203      	str	r3, [r0, #32]
 8002d98:	6a03      	ldr	r3, [r0, #32]
 8002d9a:	6842      	ldr	r2, [r0, #4]
 8002d9c:	b570      	push	{r4, r5, r6, lr}
 8002d9e:	6984      	ldr	r4, [r0, #24]
 8002da0:	680d      	ldr	r5, [r1, #0]
 8002da2:	f024 7480 	bic.w	r4, r4, #16777216	; 0x1000000
 8002da6:	f424 44e6 	bic.w	r4, r4, #29440	; 0x7300
 8002daa:	ea44 2405 	orr.w	r4, r4, r5, lsl #8
 8002dae:	688d      	ldr	r5, [r1, #8]
 8002db0:	f023 0320 	bic.w	r3, r3, #32
 8002db4:	ea43 1305 	orr.w	r3, r3, r5, lsl #4
 8002db8:	4d0e      	ldr	r5, [pc, #56]	; (8002df4 <TIM_OC2_SetConfig+0x64>)
 8002dba:	42a8      	cmp	r0, r5
 8002dbc:	d10e      	bne.n	8002ddc <TIM_OC2_SetConfig+0x4c>
 8002dbe:	68cd      	ldr	r5, [r1, #12]
 8002dc0:	f023 0380 	bic.w	r3, r3, #128	; 0x80
 8002dc4:	ea43 1305 	orr.w	r3, r3, r5, lsl #4
 8002dc8:	f023 0340 	bic.w	r3, r3, #64	; 0x40
 8002dcc:	e9d1 5605 	ldrd	r5, r6, [r1, #20]
 8002dd0:	f422 6240 	bic.w	r2, r2, #3072	; 0xc00
 8002dd4:	4335      	orrs	r5, r6
 8002dd6:	ea42 0285 	orr.w	r2, r2, r5, lsl #2
 8002dda:	e005      	b.n	8002de8 <TIM_OC2_SetConfig+0x58>
 8002ddc:	4d06      	ldr	r5, [pc, #24]	; (8002df8 <TIM_OC2_SetConfig+0x68>)
 8002dde:	42a8      	cmp	r0, r5
 8002de0:	d0f4      	beq.n	8002dcc <TIM_OC2_SetConfig+0x3c>
 8002de2:	4d06      	ldr	r5, [pc, #24]	; (8002dfc <TIM_OC2_SetConfig+0x6c>)
 8002de4:	42a8      	cmp	r0, r5
 8002de6:	d0f1      	beq.n	8002dcc <TIM_OC2_SetConfig+0x3c>
 8002de8:	6042      	str	r2, [r0, #4]
 8002dea:	684a      	ldr	r2, [r1, #4]
 8002dec:	6184      	str	r4, [r0, #24]
 8002dee:	6382      	str	r2, [r0, #56]	; 0x38
 8002df0:	6203      	str	r3, [r0, #32]
 8002df2:	bd70      	pop	{r4, r5, r6, pc}
 8002df4:	40012c00 	.word	0x40012c00
 8002df8:	40014000 	.word	0x40014000
 8002dfc:	40014400 	.word	0x40014400

08002e00 <HAL_TIM_PWM_ConfigChannel>:
 8002e00:	b570      	push	{r4, r5, r6, lr}
 8002e02:	f890 303c 	ldrb.w	r3, [r0, #60]	; 0x3c
 8002e06:	2b01      	cmp	r3, #1
 8002e08:	4605      	mov	r5, r0
 8002e0a:	d079      	beq.n	8002f00 <HAL_TIM_PWM_ConfigChannel+0x100>
 8002e0c:	2001      	movs	r0, #1
 8002e0e:	2a0c      	cmp	r2, #12
 8002e10:	f885 003c 	strb.w	r0, [r5, #60]	; 0x3c
 8002e14:	d052      	beq.n	8002ebc <HAL_TIM_PWM_ConfigChannel+0xbc>
 8002e16:	d808      	bhi.n	8002e2a <HAL_TIM_PWM_ConfigChannel+0x2a>
 8002e18:	2a04      	cmp	r2, #4
 8002e1a:	d02d      	beq.n	8002e78 <HAL_TIM_PWM_ConfigChannel+0x78>
 8002e1c:	2a08      	cmp	r2, #8
 8002e1e:	d03c      	beq.n	8002e9a <HAL_TIM_PWM_ConfigChannel+0x9a>
 8002e20:	b1c2      	cbz	r2, 8002e54 <HAL_TIM_PWM_ConfigChannel+0x54>
 8002e22:	2300      	movs	r3, #0
 8002e24:	f885 303c 	strb.w	r3, [r5, #60]	; 0x3c
 8002e28:	bd70      	pop	{r4, r5, r6, pc}
 8002e2a:	2a10      	cmp	r2, #16
 8002e2c:	d057      	beq.n	8002ede <HAL_TIM_PWM_ConfigChannel+0xde>
 8002e2e:	2a14      	cmp	r2, #20
 8002e30:	d1f7      	bne.n	8002e22 <HAL_TIM_PWM_ConfigChannel+0x22>
 8002e32:	6828      	ldr	r0, [r5, #0]
 8002e34:	f7ff fe06 	bl	8002a44 <TIM_OC6_SetConfig>
 8002e38:	682b      	ldr	r3, [r5, #0]
 8002e3a:	6909      	ldr	r1, [r1, #16]
 8002e3c:	6d5a      	ldr	r2, [r3, #84]	; 0x54
 8002e3e:	f442 6200 	orr.w	r2, r2, #2048	; 0x800
 8002e42:	655a      	str	r2, [r3, #84]	; 0x54
 8002e44:	6d5a      	ldr	r2, [r3, #84]	; 0x54
 8002e46:	f422 6280 	bic.w	r2, r2, #1024	; 0x400
 8002e4a:	655a      	str	r2, [r3, #84]	; 0x54
 8002e4c:	6d5a      	ldr	r2, [r3, #84]	; 0x54
 8002e4e:	ea42 2201 	orr.w	r2, r2, r1, lsl #8
 8002e52:	e053      	b.n	8002efc <HAL_TIM_PWM_ConfigChannel+0xfc>
 8002e54:	6828      	ldr	r0, [r5, #0]
 8002e56:	f7ff fd29 	bl	80028ac <TIM_OC1_SetConfig>
 8002e5a:	682b      	ldr	r3, [r5, #0]
 8002e5c:	6909      	ldr	r1, [r1, #16]
 8002e5e:	699a      	ldr	r2, [r3, #24]
 8002e60:	f042 0208 	orr.w	r2, r2, #8
 8002e64:	619a      	str	r2, [r3, #24]
 8002e66:	699a      	ldr	r2, [r3, #24]
 8002e68:	f022 0204 	bic.w	r2, r2, #4
 8002e6c:	619a      	str	r2, [r3, #24]
 8002e6e:	699a      	ldr	r2, [r3, #24]
 8002e70:	430a      	orrs	r2, r1
 8002e72:	619a      	str	r2, [r3, #24]
 8002e74:	2000      	movs	r0, #0
 8002e76:	e7d4      	b.n	8002e22 <HAL_TIM_PWM_ConfigChannel+0x22>
 8002e78:	6828      	ldr	r0, [r5, #0]
 8002e7a:	f7ff ff89 	bl	8002d90 <TIM_OC2_SetConfig>
 8002e7e:	682b      	ldr	r3, [r5, #0]
 8002e80:	6909      	ldr	r1, [r1, #16]
 8002e82:	699a      	ldr	r2, [r3, #24]
 8002e84:	f442 6200 	orr.w	r2, r2, #2048	; 0x800
 8002e88:	619a      	str	r2, [r3, #24]
 8002e8a:	699a      	ldr	r2, [r3, #24]
 8002e8c:	f422 6280 	bic.w	r2, r2, #1024	; 0x400
 8002e90:	619a      	str	r2, [r3, #24]
 8002e92:	699a      	ldr	r2, [r3, #24]
 8002e94:	ea42 2201 	orr.w	r2, r2, r1, lsl #8
 8002e98:	e7eb      	b.n	8002e72 <HAL_TIM_PWM_ConfigChannel+0x72>
 8002e9a:	6828      	ldr	r0, [r5, #0]
 8002e9c:	f7ff fd42 	bl	8002924 <TIM_OC3_SetConfig>
 8002ea0:	682b      	ldr	r3, [r5, #0]
 8002ea2:	6909      	ldr	r1, [r1, #16]
 8002ea4:	69da      	ldr	r2, [r3, #28]
 8002ea6:	f042 0208 	orr.w	r2, r2, #8
 8002eaa:	61da      	str	r2, [r3, #28]
 8002eac:	69da      	ldr	r2, [r3, #28]
 8002eae:	f022 0204 	bic.w	r2, r2, #4
 8002eb2:	61da      	str	r2, [r3, #28]
 8002eb4:	69da      	ldr	r2, [r3, #28]
 8002eb6:	430a      	orrs	r2, r1
 8002eb8:	61da      	str	r2, [r3, #28]
 8002eba:	e7db      	b.n	8002e74 <HAL_TIM_PWM_ConfigChannel+0x74>
 8002ebc:	6828      	ldr	r0, [r5, #0]
 8002ebe:	f7ff fd69 	bl	8002994 <TIM_OC4_SetConfig>
 8002ec2:	682b      	ldr	r3, [r5, #0]
 8002ec4:	6909      	ldr	r1, [r1, #16]
 8002ec6:	69da      	ldr	r2, [r3, #28]
 8002ec8:	f442 6200 	orr.w	r2, r2, #2048	; 0x800
 8002ecc:	61da      	str	r2, [r3, #28]
 8002ece:	69da      	ldr	r2, [r3, #28]
 8002ed0:	f422 6280 	bic.w	r2, r2, #1024	; 0x400
 8002ed4:	61da      	str	r2, [r3, #28]
 8002ed6:	69da      	ldr	r2, [r3, #28]
 8002ed8:	ea42 2201 	orr.w	r2, r2, r1, lsl #8
 8002edc:	e7ec      	b.n	8002eb8 <HAL_TIM_PWM_ConfigChannel+0xb8>
 8002ede:	6828      	ldr	r0, [r5, #0]
 8002ee0:	f7ff fd84 	bl	80029ec <TIM_OC5_SetConfig>
 8002ee4:	682b      	ldr	r3, [r5, #0]
 8002ee6:	6909      	ldr	r1, [r1, #16]
 8002ee8:	6d5a      	ldr	r2, [r3, #84]	; 0x54
 8002eea:	f042 0208 	orr.w	r2, r2, #8
 8002eee:	655a      	str	r2, [r3, #84]	; 0x54
 8002ef0:	6d5a      	ldr	r2, [r3, #84]	; 0x54
 8002ef2:	f022 0204 	bic.w	r2, r2, #4
 8002ef6:	655a      	str	r2, [r3, #84]	; 0x54
 8002ef8:	6d5a      	ldr	r2, [r3, #84]	; 0x54
 8002efa:	430a      	orrs	r2, r1
 8002efc:	655a      	str	r2, [r3, #84]	; 0x54
 8002efe:	e7b9      	b.n	8002e74 <HAL_TIM_PWM_ConfigChannel+0x74>
 8002f00:	2002      	movs	r0, #2
 8002f02:	e791      	b.n	8002e28 <HAL_TIM_PWM_ConfigChannel+0x28>

08002f04 <HAL_TIMEx_MasterConfigSynchronization>:
 8002f04:	b570      	push	{r4, r5, r6, lr}
 8002f06:	f890 303c 	ldrb.w	r3, [r0, #60]	; 0x3c
 8002f0a:	2b01      	cmp	r3, #1
 8002f0c:	f04f 0302 	mov.w	r3, #2
 8002f10:	d023      	beq.n	8002f5a <HAL_TIMEx_MasterConfigSynchronization+0x56>
 8002f12:	6802      	ldr	r2, [r0, #0]
 8002f14:	4d12      	ldr	r5, [pc, #72]	; (8002f60 <HAL_TIMEx_MasterConfigSynchronization+0x5c>)
 8002f16:	f880 303d 	strb.w	r3, [r0, #61]	; 0x3d
 8002f1a:	6853      	ldr	r3, [r2, #4]
 8002f1c:	6894      	ldr	r4, [r2, #8]
 8002f1e:	42aa      	cmp	r2, r5
 8002f20:	bf02      	ittt	eq
 8002f22:	684e      	ldreq	r6, [r1, #4]
 8002f24:	f423 0370 	biceq.w	r3, r3, #15728640	; 0xf00000
 8002f28:	4333      	orreq	r3, r6
 8002f2a:	680e      	ldr	r6, [r1, #0]
 8002f2c:	f023 0370 	bic.w	r3, r3, #112	; 0x70
 8002f30:	4333      	orrs	r3, r6
 8002f32:	42aa      	cmp	r2, r5
 8002f34:	6053      	str	r3, [r2, #4]
 8002f36:	d005      	beq.n	8002f44 <HAL_TIMEx_MasterConfigSynchronization+0x40>
 8002f38:	f1b2 4f80 	cmp.w	r2, #1073741824	; 0x40000000
 8002f3c:	d002      	beq.n	8002f44 <HAL_TIMEx_MasterConfigSynchronization+0x40>
 8002f3e:	4b09      	ldr	r3, [pc, #36]	; (8002f64 <HAL_TIMEx_MasterConfigSynchronization+0x60>)
 8002f40:	429a      	cmp	r2, r3
 8002f42:	d104      	bne.n	8002f4e <HAL_TIMEx_MasterConfigSynchronization+0x4a>
 8002f44:	6889      	ldr	r1, [r1, #8]
 8002f46:	f024 0380 	bic.w	r3, r4, #128	; 0x80
 8002f4a:	430b      	orrs	r3, r1
 8002f4c:	6093      	str	r3, [r2, #8]
 8002f4e:	2301      	movs	r3, #1
 8002f50:	f880 303d 	strb.w	r3, [r0, #61]	; 0x3d
 8002f54:	2300      	movs	r3, #0
 8002f56:	f880 303c 	strb.w	r3, [r0, #60]	; 0x3c
 8002f5a:	4618      	mov	r0, r3
 8002f5c:	bd70      	pop	{r4, r5, r6, pc}
 8002f5e:	bf00      	nop
 8002f60:	40012c00 	.word	0x40012c00
 8002f64:	40014000 	.word	0x40014000

08002f68 <HAL_TIMEx_CommutCallback>:
 8002f68:	4770      	bx	lr

08002f6a <HAL_TIMEx_BreakCallback>:
 8002f6a:	4770      	bx	lr

08002f6c <HAL_TIMEx_Break2Callback>:
 8002f6c:	4770      	bx	lr

08002f6e <UART_EndRxTransfer>:
 8002f6e:	6802      	ldr	r2, [r0, #0]
 8002f70:	e852 3f00 	ldrex	r3, [r2]
 8002f74:	f423 7390 	bic.w	r3, r3, #288	; 0x120
 8002f78:	e842 3100 	strex	r1, r3, [r2]
 8002f7c:	6802      	ldr	r2, [r0, #0]
 8002f7e:	2900      	cmp	r1, #0
 8002f80:	d1f5      	bne.n	8002f6e <UART_EndRxTransfer>
 8002f82:	f102 0308 	add.w	r3, r2, #8
 8002f86:	e853 3f00 	ldrex	r3, [r3]
 8002f8a:	f023 0301 	bic.w	r3, r3, #1
 8002f8e:	f102 0c08 	add.w	ip, r2, #8
 8002f92:	e84c 3100 	strex	r1, r3, [ip]
 8002f96:	2900      	cmp	r1, #0
 8002f98:	d1f3      	bne.n	8002f82 <UART_EndRxTransfer+0x14>
 8002f9a:	6e03      	ldr	r3, [r0, #96]	; 0x60
 8002f9c:	2b01      	cmp	r3, #1
 8002f9e:	d107      	bne.n	8002fb0 <UART_EndRxTransfer+0x42>
 8002fa0:	e852 3f00 	ldrex	r3, [r2]
 8002fa4:	f023 0310 	bic.w	r3, r3, #16
 8002fa8:	e842 3100 	strex	r1, r3, [r2]
 8002fac:	2900      	cmp	r1, #0
 8002fae:	d1f7      	bne.n	8002fa0 <UART_EndRxTransfer+0x32>
 8002fb0:	2320      	movs	r3, #32
 8002fb2:	67c3      	str	r3, [r0, #124]	; 0x7c
 8002fb4:	2300      	movs	r3, #0
 8002fb6:	6603      	str	r3, [r0, #96]	; 0x60
 8002fb8:	6643      	str	r3, [r0, #100]	; 0x64
 8002fba:	4770      	bx	lr

08002fbc <HAL_UART_RxCpltCallback>:
 8002fbc:	4770      	bx	lr

08002fbe <HAL_UART_ErrorCallback>:
 8002fbe:	4770      	bx	lr

08002fc0 <UART_DMAAbortOnError>:
 8002fc0:	b508      	push	{r3, lr}
 8002fc2:	6a80      	ldr	r0, [r0, #40]	; 0x28
 8002fc4:	2300      	movs	r3, #0
 8002fc6:	f8a0 305a 	strh.w	r3, [r0, #90]	; 0x5a
 8002fca:	f8a0 3052 	strh.w	r3, [r0, #82]	; 0x52
 8002fce:	f7ff fff6 	bl	8002fbe <HAL_UART_ErrorCallback>
 8002fd2:	bd08      	pop	{r3, pc}

08002fd4 <HAL_UART_IRQHandler>:
 8002fd4:	6803      	ldr	r3, [r0, #0]
 8002fd6:	69da      	ldr	r2, [r3, #28]
 8002fd8:	6819      	ldr	r1, [r3, #0]
 8002fda:	b570      	push	{r4, r5, r6, lr}
 8002fdc:	f640 060f 	movw	r6, #2063	; 0x80f
 8002fe0:	4232      	tst	r2, r6
 8002fe2:	689d      	ldr	r5, [r3, #8]
 8002fe4:	4604      	mov	r4, r0
 8002fe6:	d10b      	bne.n	8003000 <HAL_UART_IRQHandler+0x2c>
 8002fe8:	0696      	lsls	r6, r2, #26
 8002fea:	f140 8088 	bpl.w	80030fe <HAL_UART_IRQHandler+0x12a>
 8002fee:	068e      	lsls	r6, r1, #26
 8002ff0:	f140 8085 	bpl.w	80030fe <HAL_UART_IRQHandler+0x12a>
 8002ff4:	6e43      	ldr	r3, [r0, #100]	; 0x64
 8002ff6:	2b00      	cmp	r3, #0
 8002ff8:	d07b      	beq.n	80030f2 <HAL_UART_IRQHandler+0x11e>
 8002ffa:	e8bd 4070 	ldmia.w	sp!, {r4, r5, r6, lr}
 8002ffe:	4718      	bx	r3
 8003000:	4e95      	ldr	r6, [pc, #596]	; (8003258 <HAL_UART_IRQHandler+0x284>)
 8003002:	f005 0001 	and.w	r0, r5, #1
 8003006:	400e      	ands	r6, r1
 8003008:	4306      	orrs	r6, r0
 800300a:	d078      	beq.n	80030fe <HAL_UART_IRQHandler+0x12a>
 800300c:	07d5      	lsls	r5, r2, #31
 800300e:	d509      	bpl.n	8003024 <HAL_UART_IRQHandler+0x50>
 8003010:	05ce      	lsls	r6, r1, #23
 8003012:	d507      	bpl.n	8003024 <HAL_UART_IRQHandler+0x50>
 8003014:	2501      	movs	r5, #1
 8003016:	621d      	str	r5, [r3, #32]
 8003018:	f8d4 5080 	ldr.w	r5, [r4, #128]	; 0x80
 800301c:	f045 0501 	orr.w	r5, r5, #1
 8003020:	f8c4 5080 	str.w	r5, [r4, #128]	; 0x80
 8003024:	0795      	lsls	r5, r2, #30
 8003026:	d508      	bpl.n	800303a <HAL_UART_IRQHandler+0x66>
 8003028:	b138      	cbz	r0, 800303a <HAL_UART_IRQHandler+0x66>
 800302a:	2502      	movs	r5, #2
 800302c:	621d      	str	r5, [r3, #32]
 800302e:	f8d4 5080 	ldr.w	r5, [r4, #128]	; 0x80
 8003032:	f045 0504 	orr.w	r5, r5, #4
 8003036:	f8c4 5080 	str.w	r5, [r4, #128]	; 0x80
 800303a:	0756      	lsls	r6, r2, #29
 800303c:	d508      	bpl.n	8003050 <HAL_UART_IRQHandler+0x7c>
 800303e:	b138      	cbz	r0, 8003050 <HAL_UART_IRQHandler+0x7c>
 8003040:	2504      	movs	r5, #4
 8003042:	621d      	str	r5, [r3, #32]
 8003044:	f8d4 5080 	ldr.w	r5, [r4, #128]	; 0x80
 8003048:	f045 0502 	orr.w	r5, r5, #2
 800304c:	f8c4 5080 	str.w	r5, [r4, #128]	; 0x80
 8003050:	0715      	lsls	r5, r2, #28
 8003052:	d50b      	bpl.n	800306c <HAL_UART_IRQHandler+0x98>
 8003054:	f001 0520 	and.w	r5, r1, #32
 8003058:	4328      	orrs	r0, r5
 800305a:	d007      	beq.n	800306c <HAL_UART_IRQHandler+0x98>
 800305c:	2008      	movs	r0, #8
 800305e:	6218      	str	r0, [r3, #32]
 8003060:	f8d4 0080 	ldr.w	r0, [r4, #128]	; 0x80
 8003064:	f040 0008 	orr.w	r0, r0, #8
 8003068:	f8c4 0080 	str.w	r0, [r4, #128]	; 0x80
 800306c:	0516      	lsls	r6, r2, #20
 800306e:	d50a      	bpl.n	8003086 <HAL_UART_IRQHandler+0xb2>
 8003070:	014d      	lsls	r5, r1, #5
 8003072:	d508      	bpl.n	8003086 <HAL_UART_IRQHandler+0xb2>
 8003074:	f44f 6000 	mov.w	r0, #2048	; 0x800
 8003078:	6218      	str	r0, [r3, #32]
 800307a:	f8d4 3080 	ldr.w	r3, [r4, #128]	; 0x80
 800307e:	f043 0320 	orr.w	r3, r3, #32
 8003082:	f8c4 3080 	str.w	r3, [r4, #128]	; 0x80
 8003086:	f8d4 3080 	ldr.w	r3, [r4, #128]	; 0x80
 800308a:	2b00      	cmp	r3, #0
 800308c:	d031      	beq.n	80030f2 <HAL_UART_IRQHandler+0x11e>
 800308e:	0690      	lsls	r0, r2, #26
 8003090:	d505      	bpl.n	800309e <HAL_UART_IRQHandler+0xca>
 8003092:	068a      	lsls	r2, r1, #26
 8003094:	d503      	bpl.n	800309e <HAL_UART_IRQHandler+0xca>
 8003096:	6e63      	ldr	r3, [r4, #100]	; 0x64
 8003098:	b10b      	cbz	r3, 800309e <HAL_UART_IRQHandler+0xca>
 800309a:	4620      	mov	r0, r4
 800309c:	4798      	blx	r3
 800309e:	6823      	ldr	r3, [r4, #0]
 80030a0:	f8d4 5080 	ldr.w	r5, [r4, #128]	; 0x80
 80030a4:	689b      	ldr	r3, [r3, #8]
 80030a6:	f005 0528 	and.w	r5, r5, #40	; 0x28
 80030aa:	f003 0340 	and.w	r3, r3, #64	; 0x40
 80030ae:	431d      	orrs	r5, r3
 80030b0:	4620      	mov	r0, r4
 80030b2:	d01f      	beq.n	80030f4 <HAL_UART_IRQHandler+0x120>
 80030b4:	f7ff ff5b 	bl	8002f6e <UART_EndRxTransfer>
 80030b8:	6822      	ldr	r2, [r4, #0]
 80030ba:	6893      	ldr	r3, [r2, #8]
 80030bc:	065b      	lsls	r3, r3, #25
 80030be:	d515      	bpl.n	80030ec <HAL_UART_IRQHandler+0x118>
 80030c0:	f102 0308 	add.w	r3, r2, #8
 80030c4:	e853 3f00 	ldrex	r3, [r3]
 80030c8:	f023 0340 	bic.w	r3, r3, #64	; 0x40
 80030cc:	f102 0008 	add.w	r0, r2, #8
 80030d0:	e840 3100 	strex	r1, r3, [r0]
 80030d4:	2900      	cmp	r1, #0
 80030d6:	d1f3      	bne.n	80030c0 <HAL_UART_IRQHandler+0xec>
 80030d8:	6f20      	ldr	r0, [r4, #112]	; 0x70
 80030da:	b138      	cbz	r0, 80030ec <HAL_UART_IRQHandler+0x118>
 80030dc:	4b5f      	ldr	r3, [pc, #380]	; (800325c <HAL_UART_IRQHandler+0x288>)
 80030de:	6383      	str	r3, [r0, #56]	; 0x38
 80030e0:	f7fe f8c6 	bl	8001270 <HAL_DMA_Abort_IT>
 80030e4:	b128      	cbz	r0, 80030f2 <HAL_UART_IRQHandler+0x11e>
 80030e6:	6f20      	ldr	r0, [r4, #112]	; 0x70
 80030e8:	6b83      	ldr	r3, [r0, #56]	; 0x38
 80030ea:	e786      	b.n	8002ffa <HAL_UART_IRQHandler+0x26>
 80030ec:	4620      	mov	r0, r4
 80030ee:	f7ff ff66 	bl	8002fbe <HAL_UART_ErrorCallback>
 80030f2:	bd70      	pop	{r4, r5, r6, pc}
 80030f4:	f7ff ff63 	bl	8002fbe <HAL_UART_ErrorCallback>
 80030f8:	f8c4 5080 	str.w	r5, [r4, #128]	; 0x80
 80030fc:	e7f9      	b.n	80030f2 <HAL_UART_IRQHandler+0x11e>
 80030fe:	6e20      	ldr	r0, [r4, #96]	; 0x60
 8003100:	2801      	cmp	r0, #1
 8003102:	d17e      	bne.n	8003202 <HAL_UART_IRQHandler+0x22e>
 8003104:	06d6      	lsls	r6, r2, #27
 8003106:	d57c      	bpl.n	8003202 <HAL_UART_IRQHandler+0x22e>
 8003108:	06c8      	lsls	r0, r1, #27
 800310a:	d57a      	bpl.n	8003202 <HAL_UART_IRQHandler+0x22e>
 800310c:	2210      	movs	r2, #16
 800310e:	621a      	str	r2, [r3, #32]
 8003110:	689a      	ldr	r2, [r3, #8]
 8003112:	0651      	lsls	r1, r2, #25
 8003114:	d546      	bpl.n	80031a4 <HAL_UART_IRQHandler+0x1d0>
 8003116:	6f22      	ldr	r2, [r4, #112]	; 0x70
 8003118:	6811      	ldr	r1, [r2, #0]
 800311a:	684a      	ldr	r2, [r1, #4]
 800311c:	b292      	uxth	r2, r2
 800311e:	2a00      	cmp	r2, #0
 8003120:	d0e7      	beq.n	80030f2 <HAL_UART_IRQHandler+0x11e>
 8003122:	f8b4 0058 	ldrh.w	r0, [r4, #88]	; 0x58
 8003126:	4290      	cmp	r0, r2
 8003128:	d9e3      	bls.n	80030f2 <HAL_UART_IRQHandler+0x11e>
 800312a:	f8a4 205a 	strh.w	r2, [r4, #90]	; 0x5a
 800312e:	680a      	ldr	r2, [r1, #0]
 8003130:	0692      	lsls	r2, r2, #26
 8003132:	d42d      	bmi.n	8003190 <HAL_UART_IRQHandler+0x1bc>
 8003134:	e853 2f00 	ldrex	r2, [r3]
 8003138:	f422 7280 	bic.w	r2, r2, #256	; 0x100
 800313c:	e843 2100 	strex	r1, r2, [r3]
 8003140:	2900      	cmp	r1, #0
 8003142:	d1f7      	bne.n	8003134 <HAL_UART_IRQHandler+0x160>
 8003144:	f103 0208 	add.w	r2, r3, #8
 8003148:	e852 2f00 	ldrex	r2, [r2]
 800314c:	f022 0201 	bic.w	r2, r2, #1
 8003150:	f103 0008 	add.w	r0, r3, #8
 8003154:	e840 2100 	strex	r1, r2, [r0]
 8003158:	2900      	cmp	r1, #0
 800315a:	d1f3      	bne.n	8003144 <HAL_UART_IRQHandler+0x170>
 800315c:	f103 0208 	add.w	r2, r3, #8
 8003160:	e852 2f00 	ldrex	r2, [r2]
 8003164:	f022 0240 	bic.w	r2, r2, #64	; 0x40
 8003168:	f103 0008 	add.w	r0, r3, #8
 800316c:	e840 2100 	strex	r1, r2, [r0]
 8003170:	2900      	cmp	r1, #0
 8003172:	d1f3      	bne.n	800315c <HAL_UART_IRQHandler+0x188>
 8003174:	2220      	movs	r2, #32
 8003176:	67e2      	str	r2, [r4, #124]	; 0x7c
 8003178:	6621      	str	r1, [r4, #96]	; 0x60
 800317a:	e853 2f00 	ldrex	r2, [r3]
 800317e:	f022 0210 	bic.w	r2, r2, #16
 8003182:	e843 2100 	strex	r1, r2, [r3]
 8003186:	2900      	cmp	r1, #0
 8003188:	d1f7      	bne.n	800317a <HAL_UART_IRQHandler+0x1a6>
 800318a:	6f20      	ldr	r0, [r4, #112]	; 0x70
 800318c:	f7fe f84d 	bl	800122a <HAL_DMA_Abort>
 8003190:	f8b4 305a 	ldrh.w	r3, [r4, #90]	; 0x5a
 8003194:	f8b4 1058 	ldrh.w	r1, [r4, #88]	; 0x58
 8003198:	1ac9      	subs	r1, r1, r3
 800319a:	b289      	uxth	r1, r1
 800319c:	4620      	mov	r0, r4
 800319e:	f7fd fb19 	bl	80007d4 <HAL_UARTEx_RxEventCallback>
 80031a2:	e7a6      	b.n	80030f2 <HAL_UART_IRQHandler+0x11e>
 80031a4:	f8b4 105a 	ldrh.w	r1, [r4, #90]	; 0x5a
 80031a8:	b28a      	uxth	r2, r1
 80031aa:	f8b4 105a 	ldrh.w	r1, [r4, #90]	; 0x5a
 80031ae:	b289      	uxth	r1, r1
 80031b0:	2900      	cmp	r1, #0
 80031b2:	d09e      	beq.n	80030f2 <HAL_UART_IRQHandler+0x11e>
 80031b4:	f8b4 1058 	ldrh.w	r1, [r4, #88]	; 0x58
 80031b8:	1a89      	subs	r1, r1, r2
 80031ba:	b289      	uxth	r1, r1
 80031bc:	2900      	cmp	r1, #0
 80031be:	d098      	beq.n	80030f2 <HAL_UART_IRQHandler+0x11e>
 80031c0:	e853 2f00 	ldrex	r2, [r3]
 80031c4:	f422 7290 	bic.w	r2, r2, #288	; 0x120
 80031c8:	e843 2000 	strex	r0, r2, [r3]
 80031cc:	2800      	cmp	r0, #0
 80031ce:	d1f7      	bne.n	80031c0 <HAL_UART_IRQHandler+0x1ec>
 80031d0:	f103 0208 	add.w	r2, r3, #8
 80031d4:	e852 2f00 	ldrex	r2, [r2]
 80031d8:	f022 0201 	bic.w	r2, r2, #1
 80031dc:	f103 0508 	add.w	r5, r3, #8
 80031e0:	e845 2000 	strex	r0, r2, [r5]
 80031e4:	2800      	cmp	r0, #0
 80031e6:	d1f3      	bne.n	80031d0 <HAL_UART_IRQHandler+0x1fc>
 80031e8:	2220      	movs	r2, #32
 80031ea:	67e2      	str	r2, [r4, #124]	; 0x7c
 80031ec:	6660      	str	r0, [r4, #100]	; 0x64
 80031ee:	6620      	str	r0, [r4, #96]	; 0x60
 80031f0:	e853 2f00 	ldrex	r2, [r3]
 80031f4:	f022 0210 	bic.w	r2, r2, #16
 80031f8:	e843 2000 	strex	r0, r2, [r3]
 80031fc:	2800      	cmp	r0, #0
 80031fe:	d1f7      	bne.n	80031f0 <HAL_UART_IRQHandler+0x21c>
 8003200:	e7cc      	b.n	800319c <HAL_UART_IRQHandler+0x1c8>
 8003202:	02d6      	lsls	r6, r2, #11
 8003204:	d509      	bpl.n	800321a <HAL_UART_IRQHandler+0x246>
 8003206:	0268      	lsls	r0, r5, #9
 8003208:	d507      	bpl.n	800321a <HAL_UART_IRQHandler+0x246>
 800320a:	f44f 1280 	mov.w	r2, #1048576	; 0x100000
 800320e:	4620      	mov	r0, r4
 8003210:	621a      	str	r2, [r3, #32]
 8003212:	e8bd 4070 	ldmia.w	sp!, {r4, r5, r6, lr}
 8003216:	f000 bba1 	b.w	800395c <HAL_UARTEx_WakeupCallback>
 800321a:	0616      	lsls	r6, r2, #24
 800321c:	d507      	bpl.n	800322e <HAL_UART_IRQHandler+0x25a>
 800321e:	060d      	lsls	r5, r1, #24
 8003220:	d505      	bpl.n	800322e <HAL_UART_IRQHandler+0x25a>
 8003222:	6ea3      	ldr	r3, [r4, #104]	; 0x68
 8003224:	2b00      	cmp	r3, #0
 8003226:	f43f af64 	beq.w	80030f2 <HAL_UART_IRQHandler+0x11e>
 800322a:	4620      	mov	r0, r4
 800322c:	e6e5      	b.n	8002ffa <HAL_UART_IRQHandler+0x26>
 800322e:	0650      	lsls	r0, r2, #25
 8003230:	f57f af5f 	bpl.w	80030f2 <HAL_UART_IRQHandler+0x11e>
 8003234:	064a      	lsls	r2, r1, #25
 8003236:	f57f af5c 	bpl.w	80030f2 <HAL_UART_IRQHandler+0x11e>
 800323a:	e853 2f00 	ldrex	r2, [r3]
 800323e:	f022 0240 	bic.w	r2, r2, #64	; 0x40
 8003242:	e843 2100 	strex	r1, r2, [r3]
 8003246:	2900      	cmp	r1, #0
 8003248:	d1f7      	bne.n	800323a <HAL_UART_IRQHandler+0x266>
 800324a:	2320      	movs	r3, #32
 800324c:	67a3      	str	r3, [r4, #120]	; 0x78
 800324e:	66a1      	str	r1, [r4, #104]	; 0x68
 8003250:	4620      	mov	r0, r4
 8003252:	f7fd fac9 	bl	80007e8 <HAL_UART_TxCpltCallback>
 8003256:	e74c      	b.n	80030f2 <HAL_UART_IRQHandler+0x11e>
 8003258:	04000120 	.word	0x04000120
 800325c:	08002fc1 	.word	0x08002fc1

08003260 <UART_RxISR_8BIT>:
 8003260:	b508      	push	{r3, lr}
 8003262:	6fc3      	ldr	r3, [r0, #124]	; 0x7c
 8003264:	6802      	ldr	r2, [r0, #0]
 8003266:	2b22      	cmp	r3, #34	; 0x22
 8003268:	d144      	bne.n	80032f4 <UART_RxISR_8BIT+0x94>
 800326a:	8c93      	ldrh	r3, [r2, #36]	; 0x24
 800326c:	f8b0 105c 	ldrh.w	r1, [r0, #92]	; 0x5c
 8003270:	6d42      	ldr	r2, [r0, #84]	; 0x54
 8003272:	400b      	ands	r3, r1
 8003274:	7013      	strb	r3, [r2, #0]
 8003276:	6d43      	ldr	r3, [r0, #84]	; 0x54
 8003278:	3301      	adds	r3, #1
 800327a:	6543      	str	r3, [r0, #84]	; 0x54
 800327c:	f8b0 305a 	ldrh.w	r3, [r0, #90]	; 0x5a
 8003280:	3b01      	subs	r3, #1
 8003282:	b29b      	uxth	r3, r3
 8003284:	f8a0 305a 	strh.w	r3, [r0, #90]	; 0x5a
 8003288:	f8b0 305a 	ldrh.w	r3, [r0, #90]	; 0x5a
 800328c:	b29b      	uxth	r3, r3
 800328e:	bb6b      	cbnz	r3, 80032ec <UART_RxISR_8BIT+0x8c>
 8003290:	6802      	ldr	r2, [r0, #0]
 8003292:	e852 3f00 	ldrex	r3, [r2]
 8003296:	f423 7390 	bic.w	r3, r3, #288	; 0x120
 800329a:	e842 3100 	strex	r1, r3, [r2]
 800329e:	6803      	ldr	r3, [r0, #0]
 80032a0:	2900      	cmp	r1, #0
 80032a2:	d1f5      	bne.n	8003290 <UART_RxISR_8BIT+0x30>
 80032a4:	f103 0208 	add.w	r2, r3, #8
 80032a8:	e852 2f00 	ldrex	r2, [r2]
 80032ac:	f022 0201 	bic.w	r2, r2, #1
 80032b0:	f103 0c08 	add.w	ip, r3, #8
 80032b4:	e84c 2100 	strex	r1, r2, [ip]
 80032b8:	2900      	cmp	r1, #0
 80032ba:	d1f3      	bne.n	80032a4 <UART_RxISR_8BIT+0x44>
 80032bc:	2220      	movs	r2, #32
 80032be:	67c2      	str	r2, [r0, #124]	; 0x7c
 80032c0:	6e02      	ldr	r2, [r0, #96]	; 0x60
 80032c2:	6641      	str	r1, [r0, #100]	; 0x64
 80032c4:	2a01      	cmp	r2, #1
 80032c6:	d112      	bne.n	80032ee <UART_RxISR_8BIT+0x8e>
 80032c8:	6601      	str	r1, [r0, #96]	; 0x60
 80032ca:	e853 2f00 	ldrex	r2, [r3]
 80032ce:	f022 0210 	bic.w	r2, r2, #16
 80032d2:	e843 2100 	strex	r1, r2, [r3]
 80032d6:	2900      	cmp	r1, #0
 80032d8:	d1f7      	bne.n	80032ca <UART_RxISR_8BIT+0x6a>
 80032da:	69da      	ldr	r2, [r3, #28]
 80032dc:	f8b0 1058 	ldrh.w	r1, [r0, #88]	; 0x58
 80032e0:	06d2      	lsls	r2, r2, #27
 80032e2:	bf44      	itt	mi
 80032e4:	2210      	movmi	r2, #16
 80032e6:	621a      	strmi	r2, [r3, #32]
 80032e8:	f7fd fa74 	bl	80007d4 <HAL_UARTEx_RxEventCallback>
 80032ec:	bd08      	pop	{r3, pc}
 80032ee:	f7ff fe65 	bl	8002fbc <HAL_UART_RxCpltCallback>
 80032f2:	e7fb      	b.n	80032ec <UART_RxISR_8BIT+0x8c>
 80032f4:	8b13      	ldrh	r3, [r2, #24]
 80032f6:	b29b      	uxth	r3, r3
 80032f8:	f043 0308 	orr.w	r3, r3, #8
 80032fc:	8313      	strh	r3, [r2, #24]
 80032fe:	e7f5      	b.n	80032ec <UART_RxISR_8BIT+0x8c>

08003300 <UART_RxISR_16BIT>:
 8003300:	6fc2      	ldr	r2, [r0, #124]	; 0x7c
 8003302:	2a22      	cmp	r2, #34	; 0x22
 8003304:	b508      	push	{r3, lr}
 8003306:	6803      	ldr	r3, [r0, #0]
 8003308:	d141      	bne.n	800338e <UART_RxISR_16BIT+0x8e>
 800330a:	8c99      	ldrh	r1, [r3, #36]	; 0x24
 800330c:	f8b0 205c 	ldrh.w	r2, [r0, #92]	; 0x5c
 8003310:	4011      	ands	r1, r2
 8003312:	6d42      	ldr	r2, [r0, #84]	; 0x54
 8003314:	f822 1b02 	strh.w	r1, [r2], #2
 8003318:	6542      	str	r2, [r0, #84]	; 0x54
 800331a:	f8b0 205a 	ldrh.w	r2, [r0, #90]	; 0x5a
 800331e:	3a01      	subs	r2, #1
 8003320:	b292      	uxth	r2, r2
 8003322:	f8a0 205a 	strh.w	r2, [r0, #90]	; 0x5a
 8003326:	f8b0 205a 	ldrh.w	r2, [r0, #90]	; 0x5a
 800332a:	b292      	uxth	r2, r2
 800332c:	bb5a      	cbnz	r2, 8003386 <UART_RxISR_16BIT+0x86>
 800332e:	e853 2f00 	ldrex	r2, [r3]
 8003332:	f422 7290 	bic.w	r2, r2, #288	; 0x120
 8003336:	e843 2100 	strex	r1, r2, [r3]
 800333a:	2900      	cmp	r1, #0
 800333c:	d1f7      	bne.n	800332e <UART_RxISR_16BIT+0x2e>
 800333e:	f103 0208 	add.w	r2, r3, #8
 8003342:	e852 2f00 	ldrex	r2, [r2]
 8003346:	f022 0201 	bic.w	r2, r2, #1
 800334a:	f103 0c08 	add.w	ip, r3, #8
 800334e:	e84c 2100 	strex	r1, r2, [ip]
 8003352:	2900      	cmp	r1, #0
 8003354:	d1f3      	bne.n	800333e <UART_RxISR_16BIT+0x3e>
 8003356:	2220      	movs	r2, #32
 8003358:	67c2      	str	r2, [r0, #124]	; 0x7c
 800335a:	6e02      	ldr	r2, [r0, #96]	; 0x60
 800335c:	6641      	str	r1, [r0, #100]	; 0x64
 800335e:	2a01      	cmp	r2, #1
 8003360:	d112      	bne.n	8003388 <UART_RxISR_16BIT+0x88>
 8003362:	6601      	str	r1, [r0, #96]	; 0x60
 8003364:	e853 2f00 	ldrex	r2, [r3]
 8003368:	f022 0210 	bic.w	r2, r2, #16
 800336c:	e843 2100 	strex	r1, r2, [r3]
 8003370:	2900      	cmp	r1, #0
 8003372:	d1f7      	bne.n	8003364 <UART_RxISR_16BIT+0x64>
 8003374:	69da      	ldr	r2, [r3, #28]
 8003376:	f8b0 1058 	ldrh.w	r1, [r0, #88]	; 0x58
 800337a:	06d2      	lsls	r2, r2, #27
 800337c:	bf44      	itt	mi
 800337e:	2210      	movmi	r2, #16
 8003380:	621a      	strmi	r2, [r3, #32]
 8003382:	f7fd fa27 	bl	80007d4 <HAL_UARTEx_RxEventCallback>
 8003386:	bd08      	pop	{r3, pc}
 8003388:	f7ff fe18 	bl	8002fbc <HAL_UART_RxCpltCallback>
 800338c:	e7fb      	b.n	8003386 <UART_RxISR_16BIT+0x86>
 800338e:	8b1a      	ldrh	r2, [r3, #24]
 8003390:	b292      	uxth	r2, r2
 8003392:	f042 0208 	orr.w	r2, r2, #8
 8003396:	831a      	strh	r2, [r3, #24]
 8003398:	e7f5      	b.n	8003386 <UART_RxISR_16BIT+0x86>
	...

0800339c <UART_SetConfig>:
 800339c:	b570      	push	{r4, r5, r6, lr}
 800339e:	4604      	mov	r4, r0
 80033a0:	6803      	ldr	r3, [r0, #0]
 80033a2:	6921      	ldr	r1, [r4, #16]
 80033a4:	68a2      	ldr	r2, [r4, #8]
 80033a6:	681d      	ldr	r5, [r3, #0]
 80033a8:	69c0      	ldr	r0, [r0, #28]
 80033aa:	430a      	orrs	r2, r1
 80033ac:	6961      	ldr	r1, [r4, #20]
 80033ae:	430a      	orrs	r2, r1
 80033b0:	4979      	ldr	r1, [pc, #484]	; (8003598 <UART_SetConfig+0x1fc>)
 80033b2:	4302      	orrs	r2, r0
 80033b4:	4029      	ands	r1, r5
 80033b6:	430a      	orrs	r2, r1
 80033b8:	601a      	str	r2, [r3, #0]
 80033ba:	685a      	ldr	r2, [r3, #4]
 80033bc:	68e1      	ldr	r1, [r4, #12]
 80033be:	f422 5240 	bic.w	r2, r2, #12288	; 0x3000
 80033c2:	430a      	orrs	r2, r1
 80033c4:	605a      	str	r2, [r3, #4]
 80033c6:	4a75      	ldr	r2, [pc, #468]	; (800359c <UART_SetConfig+0x200>)
 80033c8:	69a1      	ldr	r1, [r4, #24]
 80033ca:	4293      	cmp	r3, r2
 80033cc:	bf1c      	itt	ne
 80033ce:	6a22      	ldrne	r2, [r4, #32]
 80033d0:	4311      	orrne	r1, r2
 80033d2:	689a      	ldr	r2, [r3, #8]
 80033d4:	f422 6230 	bic.w	r2, r2, #2816	; 0xb00
 80033d8:	430a      	orrs	r2, r1
 80033da:	609a      	str	r2, [r3, #8]
 80033dc:	4a70      	ldr	r2, [pc, #448]	; (80035a0 <UART_SetConfig+0x204>)
 80033de:	4293      	cmp	r3, r2
 80033e0:	d117      	bne.n	8003412 <UART_SetConfig+0x76>
 80033e2:	4b70      	ldr	r3, [pc, #448]	; (80035a4 <UART_SetConfig+0x208>)
 80033e4:	f8d3 3088 	ldr.w	r3, [r3, #136]	; 0x88
 80033e8:	f003 0303 	and.w	r3, r3, #3
 80033ec:	3b01      	subs	r3, #1
 80033ee:	2b02      	cmp	r3, #2
 80033f0:	f200 80b0 	bhi.w	8003554 <UART_SetConfig+0x1b8>
 80033f4:	4a6c      	ldr	r2, [pc, #432]	; (80035a8 <UART_SetConfig+0x20c>)
 80033f6:	5cd3      	ldrb	r3, [r2, r3]
 80033f8:	f5b0 4f00 	cmp.w	r0, #32768	; 0x8000
 80033fc:	f040 808b 	bne.w	8003516 <UART_SetConfig+0x17a>
 8003400:	2b08      	cmp	r3, #8
 8003402:	d822      	bhi.n	800344a <UART_SetConfig+0xae>
 8003404:	e8df f003 	tbb	[pc, r3]
 8003408:	2185a969 	.word	0x2185a969
 800340c:	21212182 	.word	0x21212182
 8003410:	6d          	.byte	0x6d
 8003411:	00          	.byte	0x00
 8003412:	4a66      	ldr	r2, [pc, #408]	; (80035ac <UART_SetConfig+0x210>)
 8003414:	4293      	cmp	r3, r2
 8003416:	d106      	bne.n	8003426 <UART_SetConfig+0x8a>
 8003418:	4b62      	ldr	r3, [pc, #392]	; (80035a4 <UART_SetConfig+0x208>)
 800341a:	4a65      	ldr	r2, [pc, #404]	; (80035b0 <UART_SetConfig+0x214>)
 800341c:	f8d3 3088 	ldr.w	r3, [r3, #136]	; 0x88
 8003420:	f003 030c 	and.w	r3, r3, #12
 8003424:	e7e7      	b.n	80033f6 <UART_SetConfig+0x5a>
 8003426:	4a63      	ldr	r2, [pc, #396]	; (80035b4 <UART_SetConfig+0x218>)
 8003428:	4293      	cmp	r3, r2
 800342a:	d118      	bne.n	800345e <UART_SetConfig+0xc2>
 800342c:	4b5d      	ldr	r3, [pc, #372]	; (80035a4 <UART_SetConfig+0x208>)
 800342e:	f8d3 3088 	ldr.w	r3, [r3, #136]	; 0x88
 8003432:	f003 0330 	and.w	r3, r3, #48	; 0x30
 8003436:	2b20      	cmp	r3, #32
 8003438:	f000 8087 	beq.w	800354a <UART_SetConfig+0x1ae>
 800343c:	d807      	bhi.n	800344e <UART_SetConfig+0xb2>
 800343e:	2b00      	cmp	r3, #0
 8003440:	f000 8094 	beq.w	800356c <UART_SetConfig+0x1d0>
 8003444:	2b10      	cmp	r3, #16
 8003446:	f000 808b 	beq.w	8003560 <UART_SetConfig+0x1c4>
 800344a:	2001      	movs	r0, #1
 800344c:	e024      	b.n	8003498 <UART_SetConfig+0xfc>
 800344e:	2b30      	cmp	r3, #48	; 0x30
 8003450:	d1fb      	bne.n	800344a <UART_SetConfig+0xae>
 8003452:	f5b0 4f00 	cmp.w	r0, #32768	; 0x8000
 8003456:	d044      	beq.n	80034e2 <UART_SetConfig+0x146>
 8003458:	f44f 4000 	mov.w	r0, #32768	; 0x8000
 800345c:	e08d      	b.n	800357a <UART_SetConfig+0x1de>
 800345e:	4a4f      	ldr	r2, [pc, #316]	; (800359c <UART_SetConfig+0x200>)
 8003460:	4293      	cmp	r3, r2
 8003462:	d1f2      	bne.n	800344a <UART_SetConfig+0xae>
 8003464:	4b4f      	ldr	r3, [pc, #316]	; (80035a4 <UART_SetConfig+0x208>)
 8003466:	f8d3 3088 	ldr.w	r3, [r3, #136]	; 0x88
 800346a:	f403 6340 	and.w	r3, r3, #3072	; 0xc00
 800346e:	f5b3 6f00 	cmp.w	r3, #2048	; 0x800
 8003472:	d015      	beq.n	80034a0 <UART_SetConfig+0x104>
 8003474:	d806      	bhi.n	8003484 <UART_SetConfig+0xe8>
 8003476:	b15b      	cbz	r3, 8003490 <UART_SetConfig+0xf4>
 8003478:	f5b3 6f80 	cmp.w	r3, #1024	; 0x400
 800347c:	d1e5      	bne.n	800344a <UART_SetConfig+0xae>
 800347e:	f7fe fbe9 	bl	8001c54 <HAL_RCC_GetSysClockFreq>
 8003482:	e007      	b.n	8003494 <UART_SetConfig+0xf8>
 8003484:	f5b3 6f40 	cmp.w	r3, #3072	; 0xc00
 8003488:	d1df      	bne.n	800344a <UART_SetConfig+0xae>
 800348a:	f44f 4000 	mov.w	r0, #32768	; 0x8000
 800348e:	e008      	b.n	80034a2 <UART_SetConfig+0x106>
 8003490:	f7fe ff7c 	bl	800238c <HAL_RCC_GetPCLK1Freq>
 8003494:	b928      	cbnz	r0, 80034a2 <UART_SetConfig+0x106>
 8003496:	2000      	movs	r0, #0
 8003498:	2300      	movs	r3, #0
 800349a:	e9c4 3319 	strd	r3, r3, [r4, #100]	; 0x64
 800349e:	bd70      	pop	{r4, r5, r6, pc}
 80034a0:	4845      	ldr	r0, [pc, #276]	; (80035b8 <UART_SetConfig+0x21c>)
 80034a2:	6862      	ldr	r2, [r4, #4]
 80034a4:	eb02 0342 	add.w	r3, r2, r2, lsl #1
 80034a8:	4283      	cmp	r3, r0
 80034aa:	d8ce      	bhi.n	800344a <UART_SetConfig+0xae>
 80034ac:	ebb0 3f02 	cmp.w	r0, r2, lsl #12
 80034b0:	d8cb      	bhi.n	800344a <UART_SetConfig+0xae>
 80034b2:	0851      	lsrs	r1, r2, #1
 80034b4:	2500      	movs	r5, #0
 80034b6:	468c      	mov	ip, r1
 80034b8:	f44f 7680 	mov.w	r6, #256	; 0x100
 80034bc:	4629      	mov	r1, r5
 80034be:	fbe0 c106 	umlal	ip, r1, r0, r6
 80034c2:	462b      	mov	r3, r5
 80034c4:	4660      	mov	r0, ip
 80034c6:	f7fc fe83 	bl	80001d0 <__aeabi_uldivmod>
 80034ca:	4b3c      	ldr	r3, [pc, #240]	; (80035bc <UART_SetConfig+0x220>)
 80034cc:	f5a0 7240 	sub.w	r2, r0, #768	; 0x300
 80034d0:	429a      	cmp	r2, r3
 80034d2:	d8ba      	bhi.n	800344a <UART_SetConfig+0xae>
 80034d4:	6823      	ldr	r3, [r4, #0]
 80034d6:	60d8      	str	r0, [r3, #12]
 80034d8:	e7dd      	b.n	8003496 <UART_SetConfig+0xfa>
 80034da:	f7fe ff57 	bl	800238c <HAL_RCC_GetPCLK1Freq>
 80034de:	2800      	cmp	r0, #0
 80034e0:	d0d9      	beq.n	8003496 <UART_SetConfig+0xfa>
 80034e2:	6862      	ldr	r2, [r4, #4]
 80034e4:	0853      	lsrs	r3, r2, #1
 80034e6:	eb03 0040 	add.w	r0, r3, r0, lsl #1
 80034ea:	f64f 73ef 	movw	r3, #65519	; 0xffef
 80034ee:	fbb0 f0f2 	udiv	r0, r0, r2
 80034f2:	f1a0 0210 	sub.w	r2, r0, #16
 80034f6:	429a      	cmp	r2, r3
 80034f8:	d8a7      	bhi.n	800344a <UART_SetConfig+0xae>
 80034fa:	f020 030f 	bic.w	r3, r0, #15
 80034fe:	6822      	ldr	r2, [r4, #0]
 8003500:	b29b      	uxth	r3, r3
 8003502:	f3c0 0042 	ubfx	r0, r0, #1, #3
 8003506:	4318      	orrs	r0, r3
 8003508:	60d0      	str	r0, [r2, #12]
 800350a:	e7c4      	b.n	8003496 <UART_SetConfig+0xfa>
 800350c:	f7fe fba2 	bl	8001c54 <HAL_RCC_GetSysClockFreq>
 8003510:	e7e5      	b.n	80034de <UART_SetConfig+0x142>
 8003512:	4829      	ldr	r0, [pc, #164]	; (80035b8 <UART_SetConfig+0x21c>)
 8003514:	e7e5      	b.n	80034e2 <UART_SetConfig+0x146>
 8003516:	2b08      	cmp	r3, #8
 8003518:	d897      	bhi.n	800344a <UART_SetConfig+0xae>
 800351a:	a201      	add	r2, pc, #4	; (adr r2, 8003520 <UART_SetConfig+0x184>)
 800351c:	f852 f023 	ldr.w	pc, [r2, r3, lsl #2]
 8003520:	08003573 	.word	0x08003573
 8003524:	08003545 	.word	0x08003545
 8003528:	08003551 	.word	0x08003551
 800352c:	0800344b 	.word	0x0800344b
 8003530:	08003567 	.word	0x08003567
 8003534:	0800344b 	.word	0x0800344b
 8003538:	0800344b 	.word	0x0800344b
 800353c:	0800344b 	.word	0x0800344b
 8003540:	08003459 	.word	0x08003459
 8003544:	f7fe ff34 	bl	80023b0 <HAL_RCC_GetPCLK2Freq>
 8003548:	e015      	b.n	8003576 <UART_SetConfig+0x1da>
 800354a:	f5b0 4f00 	cmp.w	r0, #32768	; 0x8000
 800354e:	d0e0      	beq.n	8003512 <UART_SetConfig+0x176>
 8003550:	4819      	ldr	r0, [pc, #100]	; (80035b8 <UART_SetConfig+0x21c>)
 8003552:	e012      	b.n	800357a <UART_SetConfig+0x1de>
 8003554:	f5b0 4f00 	cmp.w	r0, #32768	; 0x8000
 8003558:	d1f4      	bne.n	8003544 <UART_SetConfig+0x1a8>
 800355a:	f7fe ff29 	bl	80023b0 <HAL_RCC_GetPCLK2Freq>
 800355e:	e7be      	b.n	80034de <UART_SetConfig+0x142>
 8003560:	f5b0 4f00 	cmp.w	r0, #32768	; 0x8000
 8003564:	d0d2      	beq.n	800350c <UART_SetConfig+0x170>
 8003566:	f7fe fb75 	bl	8001c54 <HAL_RCC_GetSysClockFreq>
 800356a:	e004      	b.n	8003576 <UART_SetConfig+0x1da>
 800356c:	f5b0 4f00 	cmp.w	r0, #32768	; 0x8000
 8003570:	d0b3      	beq.n	80034da <UART_SetConfig+0x13e>
 8003572:	f7fe ff0b 	bl	800238c <HAL_RCC_GetPCLK1Freq>
 8003576:	2800      	cmp	r0, #0
 8003578:	d08d      	beq.n	8003496 <UART_SetConfig+0xfa>
 800357a:	6862      	ldr	r2, [r4, #4]
 800357c:	eb00 0352 	add.w	r3, r0, r2, lsr #1
 8003580:	fbb3 f3f2 	udiv	r3, r3, r2
 8003584:	f64f 72ef 	movw	r2, #65519	; 0xffef
 8003588:	f1a3 0110 	sub.w	r1, r3, #16
 800358c:	4291      	cmp	r1, r2
 800358e:	f63f af5c 	bhi.w	800344a <UART_SetConfig+0xae>
 8003592:	6822      	ldr	r2, [r4, #0]
 8003594:	60d3      	str	r3, [r2, #12]
 8003596:	e77e      	b.n	8003496 <UART_SetConfig+0xfa>
 8003598:	efff69f3 	.word	0xefff69f3
 800359c:	40008000 	.word	0x40008000
 80035a0:	40013800 	.word	0x40013800
 80035a4:	40021000 	.word	0x40021000
 80035a8:	080059bc 	.word	0x080059bc
 80035ac:	40004400 	.word	0x40004400
 80035b0:	080059bf 	.word	0x080059bf
 80035b4:	40004800 	.word	0x40004800
 80035b8:	00f42400 	.word	0x00f42400
 80035bc:	000ffcff 	.word	0x000ffcff

080035c0 <UART_AdvFeatureConfig>:
 80035c0:	6a43      	ldr	r3, [r0, #36]	; 0x24
 80035c2:	07da      	lsls	r2, r3, #31
 80035c4:	b510      	push	{r4, lr}
 80035c6:	d506      	bpl.n	80035d6 <UART_AdvFeatureConfig+0x16>
 80035c8:	6801      	ldr	r1, [r0, #0]
 80035ca:	6a84      	ldr	r4, [r0, #40]	; 0x28
 80035cc:	684a      	ldr	r2, [r1, #4]
 80035ce:	f422 3200 	bic.w	r2, r2, #131072	; 0x20000
 80035d2:	4322      	orrs	r2, r4
 80035d4:	604a      	str	r2, [r1, #4]
 80035d6:	079c      	lsls	r4, r3, #30
 80035d8:	d506      	bpl.n	80035e8 <UART_AdvFeatureConfig+0x28>
 80035da:	6801      	ldr	r1, [r0, #0]
 80035dc:	6ac4      	ldr	r4, [r0, #44]	; 0x2c
 80035de:	684a      	ldr	r2, [r1, #4]
 80035e0:	f422 3280 	bic.w	r2, r2, #65536	; 0x10000
 80035e4:	4322      	orrs	r2, r4
 80035e6:	604a      	str	r2, [r1, #4]
 80035e8:	0759      	lsls	r1, r3, #29
 80035ea:	d506      	bpl.n	80035fa <UART_AdvFeatureConfig+0x3a>
 80035ec:	6801      	ldr	r1, [r0, #0]
 80035ee:	6b04      	ldr	r4, [r0, #48]	; 0x30
 80035f0:	684a      	ldr	r2, [r1, #4]
 80035f2:	f422 2280 	bic.w	r2, r2, #262144	; 0x40000
 80035f6:	4322      	orrs	r2, r4
 80035f8:	604a      	str	r2, [r1, #4]
 80035fa:	071a      	lsls	r2, r3, #28
 80035fc:	d506      	bpl.n	800360c <UART_AdvFeatureConfig+0x4c>
 80035fe:	6801      	ldr	r1, [r0, #0]
 8003600:	6b44      	ldr	r4, [r0, #52]	; 0x34
 8003602:	684a      	ldr	r2, [r1, #4]
 8003604:	f422 4200 	bic.w	r2, r2, #32768	; 0x8000
 8003608:	4322      	orrs	r2, r4
 800360a:	604a      	str	r2, [r1, #4]
 800360c:	06dc      	lsls	r4, r3, #27
 800360e:	d506      	bpl.n	800361e <UART_AdvFeatureConfig+0x5e>
 8003610:	6801      	ldr	r1, [r0, #0]
 8003612:	6b84      	ldr	r4, [r0, #56]	; 0x38
 8003614:	688a      	ldr	r2, [r1, #8]
 8003616:	f422 5280 	bic.w	r2, r2, #4096	; 0x1000
 800361a:	4322      	orrs	r2, r4
 800361c:	608a      	str	r2, [r1, #8]
 800361e:	0699      	lsls	r1, r3, #26
 8003620:	d506      	bpl.n	8003630 <UART_AdvFeatureConfig+0x70>
 8003622:	6801      	ldr	r1, [r0, #0]
 8003624:	6bc4      	ldr	r4, [r0, #60]	; 0x3c
 8003626:	688a      	ldr	r2, [r1, #8]
 8003628:	f422 5200 	bic.w	r2, r2, #8192	; 0x2000
 800362c:	4322      	orrs	r2, r4
 800362e:	608a      	str	r2, [r1, #8]
 8003630:	065a      	lsls	r2, r3, #25
 8003632:	d50f      	bpl.n	8003654 <UART_AdvFeatureConfig+0x94>
 8003634:	6801      	ldr	r1, [r0, #0]
 8003636:	6c04      	ldr	r4, [r0, #64]	; 0x40
 8003638:	684a      	ldr	r2, [r1, #4]
 800363a:	f422 1280 	bic.w	r2, r2, #1048576	; 0x100000
 800363e:	4322      	orrs	r2, r4
 8003640:	f5b4 1f80 	cmp.w	r4, #1048576	; 0x100000
 8003644:	604a      	str	r2, [r1, #4]
 8003646:	d105      	bne.n	8003654 <UART_AdvFeatureConfig+0x94>
 8003648:	684a      	ldr	r2, [r1, #4]
 800364a:	6c44      	ldr	r4, [r0, #68]	; 0x44
 800364c:	f422 02c0 	bic.w	r2, r2, #6291456	; 0x600000
 8003650:	4322      	orrs	r2, r4
 8003652:	604a      	str	r2, [r1, #4]
 8003654:	061b      	lsls	r3, r3, #24
 8003656:	d506      	bpl.n	8003666 <UART_AdvFeatureConfig+0xa6>
 8003658:	6802      	ldr	r2, [r0, #0]
 800365a:	6c81      	ldr	r1, [r0, #72]	; 0x48
 800365c:	6853      	ldr	r3, [r2, #4]
 800365e:	f423 2300 	bic.w	r3, r3, #524288	; 0x80000
 8003662:	430b      	orrs	r3, r1
 8003664:	6053      	str	r3, [r2, #4]
 8003666:	bd10      	pop	{r4, pc}

08003668 <UART_WaitOnFlagUntilTimeout>:
 8003668:	e92d 41f0 	stmdb	sp!, {r4, r5, r6, r7, r8, lr}
 800366c:	f8dd 8018 	ldr.w	r8, [sp, #24]
 8003670:	4604      	mov	r4, r0
 8003672:	460e      	mov	r6, r1
 8003674:	4615      	mov	r5, r2
 8003676:	461f      	mov	r7, r3
 8003678:	6822      	ldr	r2, [r4, #0]
 800367a:	69d3      	ldr	r3, [r2, #28]
 800367c:	ea36 0303 	bics.w	r3, r6, r3
 8003680:	bf0c      	ite	eq
 8003682:	2301      	moveq	r3, #1
 8003684:	2300      	movne	r3, #0
 8003686:	42ab      	cmp	r3, r5
 8003688:	d001      	beq.n	800368e <UART_WaitOnFlagUntilTimeout+0x26>
 800368a:	2000      	movs	r0, #0
 800368c:	e025      	b.n	80036da <UART_WaitOnFlagUntilTimeout+0x72>
 800368e:	f1b8 3fff 	cmp.w	r8, #4294967295	; 0xffffffff
 8003692:	d0f2      	beq.n	800367a <UART_WaitOnFlagUntilTimeout+0x12>
 8003694:	f7fd fc7a 	bl	8000f8c <HAL_GetTick>
 8003698:	1bc0      	subs	r0, r0, r7
 800369a:	4540      	cmp	r0, r8
 800369c:	6820      	ldr	r0, [r4, #0]
 800369e:	d802      	bhi.n	80036a6 <UART_WaitOnFlagUntilTimeout+0x3e>
 80036a0:	f1b8 0f00 	cmp.w	r8, #0
 80036a4:	d11b      	bne.n	80036de <UART_WaitOnFlagUntilTimeout+0x76>
 80036a6:	e850 3f00 	ldrex	r3, [r0]
 80036aa:	f423 73d0 	bic.w	r3, r3, #416	; 0x1a0
 80036ae:	e840 3200 	strex	r2, r3, [r0]
 80036b2:	2a00      	cmp	r2, #0
 80036b4:	d1f7      	bne.n	80036a6 <UART_WaitOnFlagUntilTimeout+0x3e>
 80036b6:	f100 0308 	add.w	r3, r0, #8
 80036ba:	e853 3f00 	ldrex	r3, [r3]
 80036be:	f023 0301 	bic.w	r3, r3, #1
 80036c2:	f100 0108 	add.w	r1, r0, #8
 80036c6:	e841 3200 	strex	r2, r3, [r1]
 80036ca:	2a00      	cmp	r2, #0
 80036cc:	d1f3      	bne.n	80036b6 <UART_WaitOnFlagUntilTimeout+0x4e>
 80036ce:	2320      	movs	r3, #32
 80036d0:	67a3      	str	r3, [r4, #120]	; 0x78
 80036d2:	67e3      	str	r3, [r4, #124]	; 0x7c
 80036d4:	f884 2074 	strb.w	r2, [r4, #116]	; 0x74
 80036d8:	2003      	movs	r0, #3
 80036da:	e8bd 81f0 	ldmia.w	sp!, {r4, r5, r6, r7, r8, pc}
 80036de:	6803      	ldr	r3, [r0, #0]
 80036e0:	075a      	lsls	r2, r3, #29
 80036e2:	d5c9      	bpl.n	8003678 <UART_WaitOnFlagUntilTimeout+0x10>
 80036e4:	69c3      	ldr	r3, [r0, #28]
 80036e6:	051b      	lsls	r3, r3, #20
 80036e8:	d5c6      	bpl.n	8003678 <UART_WaitOnFlagUntilTimeout+0x10>
 80036ea:	f44f 6300 	mov.w	r3, #2048	; 0x800
 80036ee:	6203      	str	r3, [r0, #32]
 80036f0:	e850 3f00 	ldrex	r3, [r0]
 80036f4:	f423 73d0 	bic.w	r3, r3, #416	; 0x1a0
 80036f8:	e840 3200 	strex	r2, r3, [r0]
 80036fc:	2a00      	cmp	r2, #0
 80036fe:	d1f7      	bne.n	80036f0 <UART_WaitOnFlagUntilTimeout+0x88>
 8003700:	f100 0308 	add.w	r3, r0, #8
 8003704:	e853 3f00 	ldrex	r3, [r3]
 8003708:	f023 0301 	bic.w	r3, r3, #1
 800370c:	f100 0108 	add.w	r1, r0, #8
 8003710:	e841 3200 	strex	r2, r3, [r1]
 8003714:	2a00      	cmp	r2, #0
 8003716:	d1f3      	bne.n	8003700 <UART_WaitOnFlagUntilTimeout+0x98>
 8003718:	2320      	movs	r3, #32
 800371a:	67a3      	str	r3, [r4, #120]	; 0x78
 800371c:	67e3      	str	r3, [r4, #124]	; 0x7c
 800371e:	f8c4 3080 	str.w	r3, [r4, #128]	; 0x80
 8003722:	e7d7      	b.n	80036d4 <UART_WaitOnFlagUntilTimeout+0x6c>

08003724 <HAL_UART_Transmit>:
 8003724:	e92d 41ff 	stmdb	sp!, {r0, r1, r2, r3, r4, r5, r6, r7, r8, lr}
 8003728:	4698      	mov	r8, r3
 800372a:	6f83      	ldr	r3, [r0, #120]	; 0x78
 800372c:	2b20      	cmp	r3, #32
 800372e:	4604      	mov	r4, r0
 8003730:	460e      	mov	r6, r1
 8003732:	4617      	mov	r7, r2
 8003734:	d14e      	bne.n	80037d4 <HAL_UART_Transmit+0xb0>
 8003736:	2900      	cmp	r1, #0
 8003738:	d04a      	beq.n	80037d0 <HAL_UART_Transmit+0xac>
 800373a:	2a00      	cmp	r2, #0
 800373c:	d048      	beq.n	80037d0 <HAL_UART_Transmit+0xac>
 800373e:	f890 3074 	ldrb.w	r3, [r0, #116]	; 0x74
 8003742:	2b01      	cmp	r3, #1
 8003744:	d046      	beq.n	80037d4 <HAL_UART_Transmit+0xb0>
 8003746:	2301      	movs	r3, #1
 8003748:	f880 3074 	strb.w	r3, [r0, #116]	; 0x74
 800374c:	2500      	movs	r5, #0
 800374e:	2321      	movs	r3, #33	; 0x21
 8003750:	f8c0 5080 	str.w	r5, [r0, #128]	; 0x80
 8003754:	6783      	str	r3, [r0, #120]	; 0x78
 8003756:	f7fd fc19 	bl	8000f8c <HAL_GetTick>
 800375a:	68a2      	ldr	r2, [r4, #8]
 800375c:	f8a4 7050 	strh.w	r7, [r4, #80]	; 0x50
 8003760:	f5b2 5f80 	cmp.w	r2, #4096	; 0x1000
 8003764:	4603      	mov	r3, r0
 8003766:	f8a4 7052 	strh.w	r7, [r4, #82]	; 0x52
 800376a:	d103      	bne.n	8003774 <HAL_UART_Transmit+0x50>
 800376c:	6922      	ldr	r2, [r4, #16]
 800376e:	b90a      	cbnz	r2, 8003774 <HAL_UART_Transmit+0x50>
 8003770:	4635      	mov	r5, r6
 8003772:	4616      	mov	r6, r2
 8003774:	2200      	movs	r2, #0
 8003776:	f884 2074 	strb.w	r2, [r4, #116]	; 0x74
 800377a:	f8b4 2052 	ldrh.w	r2, [r4, #82]	; 0x52
 800377e:	f8cd 8000 	str.w	r8, [sp]
 8003782:	b292      	uxth	r2, r2
 8003784:	b93a      	cbnz	r2, 8003796 <HAL_UART_Transmit+0x72>
 8003786:	2140      	movs	r1, #64	; 0x40
 8003788:	4620      	mov	r0, r4
 800378a:	f7ff ff6d 	bl	8003668 <UART_WaitOnFlagUntilTimeout>
 800378e:	b950      	cbnz	r0, 80037a6 <HAL_UART_Transmit+0x82>
 8003790:	2320      	movs	r3, #32
 8003792:	67a3      	str	r3, [r4, #120]	; 0x78
 8003794:	e008      	b.n	80037a8 <HAL_UART_Transmit+0x84>
 8003796:	2200      	movs	r2, #0
 8003798:	2180      	movs	r1, #128	; 0x80
 800379a:	4620      	mov	r0, r4
 800379c:	9303      	str	r3, [sp, #12]
 800379e:	f7ff ff63 	bl	8003668 <UART_WaitOnFlagUntilTimeout>
 80037a2:	9b03      	ldr	r3, [sp, #12]
 80037a4:	b118      	cbz	r0, 80037ae <HAL_UART_Transmit+0x8a>
 80037a6:	2003      	movs	r0, #3
 80037a8:	b004      	add	sp, #16
 80037aa:	e8bd 81f0 	ldmia.w	sp!, {r4, r5, r6, r7, r8, pc}
 80037ae:	6821      	ldr	r1, [r4, #0]
 80037b0:	b95e      	cbnz	r6, 80037ca <HAL_UART_Transmit+0xa6>
 80037b2:	f835 2b02 	ldrh.w	r2, [r5], #2
 80037b6:	f3c2 0208 	ubfx	r2, r2, #0, #9
 80037ba:	850a      	strh	r2, [r1, #40]	; 0x28
 80037bc:	f8b4 2052 	ldrh.w	r2, [r4, #82]	; 0x52
 80037c0:	3a01      	subs	r2, #1
 80037c2:	b292      	uxth	r2, r2
 80037c4:	f8a4 2052 	strh.w	r2, [r4, #82]	; 0x52
 80037c8:	e7d7      	b.n	800377a <HAL_UART_Transmit+0x56>
 80037ca:	f816 2b01 	ldrb.w	r2, [r6], #1
 80037ce:	e7f4      	b.n	80037ba <HAL_UART_Transmit+0x96>
 80037d0:	2001      	movs	r0, #1
 80037d2:	e7e9      	b.n	80037a8 <HAL_UART_Transmit+0x84>
 80037d4:	2002      	movs	r0, #2
 80037d6:	e7e7      	b.n	80037a8 <HAL_UART_Transmit+0x84>

080037d8 <UART_CheckIdleState>:
 80037d8:	b530      	push	{r4, r5, lr}
 80037da:	4604      	mov	r4, r0
 80037dc:	2500      	movs	r5, #0
 80037de:	b085      	sub	sp, #20
 80037e0:	f8c0 5080 	str.w	r5, [r0, #128]	; 0x80
 80037e4:	f7fd fbd2 	bl	8000f8c <HAL_GetTick>
 80037e8:	6822      	ldr	r2, [r4, #0]
 80037ea:	6812      	ldr	r2, [r2, #0]
 80037ec:	0711      	lsls	r1, r2, #28
 80037ee:	4603      	mov	r3, r0
 80037f0:	d415      	bmi.n	800381e <UART_CheckIdleState+0x46>
 80037f2:	6822      	ldr	r2, [r4, #0]
 80037f4:	6812      	ldr	r2, [r2, #0]
 80037f6:	0752      	lsls	r2, r2, #29
 80037f8:	d509      	bpl.n	800380e <UART_CheckIdleState+0x36>
 80037fa:	f06f 427e 	mvn.w	r2, #4261412864	; 0xfe000000
 80037fe:	9200      	str	r2, [sp, #0]
 8003800:	f44f 0180 	mov.w	r1, #4194304	; 0x400000
 8003804:	2200      	movs	r2, #0
 8003806:	4620      	mov	r0, r4
 8003808:	f7ff ff2e 	bl	8003668 <UART_WaitOnFlagUntilTimeout>
 800380c:	b9a0      	cbnz	r0, 8003838 <UART_CheckIdleState+0x60>
 800380e:	2320      	movs	r3, #32
 8003810:	2000      	movs	r0, #0
 8003812:	67a3      	str	r3, [r4, #120]	; 0x78
 8003814:	f884 0074 	strb.w	r0, [r4, #116]	; 0x74
 8003818:	67e3      	str	r3, [r4, #124]	; 0x7c
 800381a:	6620      	str	r0, [r4, #96]	; 0x60
 800381c:	e00d      	b.n	800383a <UART_CheckIdleState+0x62>
 800381e:	f06f 427e 	mvn.w	r2, #4261412864	; 0xfe000000
 8003822:	9200      	str	r2, [sp, #0]
 8003824:	9003      	str	r0, [sp, #12]
 8003826:	462a      	mov	r2, r5
 8003828:	f44f 1100 	mov.w	r1, #2097152	; 0x200000
 800382c:	4620      	mov	r0, r4
 800382e:	f7ff ff1b 	bl	8003668 <UART_WaitOnFlagUntilTimeout>
 8003832:	9b03      	ldr	r3, [sp, #12]
 8003834:	2800      	cmp	r0, #0
 8003836:	d0dc      	beq.n	80037f2 <UART_CheckIdleState+0x1a>
 8003838:	2003      	movs	r0, #3
 800383a:	b005      	add	sp, #20
 800383c:	bd30      	pop	{r4, r5, pc}

0800383e <HAL_UART_Init>:
 800383e:	b510      	push	{r4, lr}
 8003840:	4604      	mov	r4, r0
 8003842:	b340      	cbz	r0, 8003896 <HAL_UART_Init+0x58>
 8003844:	6f83      	ldr	r3, [r0, #120]	; 0x78
 8003846:	b91b      	cbnz	r3, 8003850 <HAL_UART_Init+0x12>
 8003848:	f880 3074 	strb.w	r3, [r0, #116]	; 0x74
 800384c:	f7fd faaa 	bl	8000da4 <HAL_UART_MspInit>
 8003850:	6822      	ldr	r2, [r4, #0]
 8003852:	2324      	movs	r3, #36	; 0x24
 8003854:	67a3      	str	r3, [r4, #120]	; 0x78
 8003856:	6813      	ldr	r3, [r2, #0]
 8003858:	f023 0301 	bic.w	r3, r3, #1
 800385c:	6013      	str	r3, [r2, #0]
 800385e:	4620      	mov	r0, r4
 8003860:	f7ff fd9c 	bl	800339c <UART_SetConfig>
 8003864:	2801      	cmp	r0, #1
 8003866:	d016      	beq.n	8003896 <HAL_UART_Init+0x58>
 8003868:	6a63      	ldr	r3, [r4, #36]	; 0x24
 800386a:	b113      	cbz	r3, 8003872 <HAL_UART_Init+0x34>
 800386c:	4620      	mov	r0, r4
 800386e:	f7ff fea7 	bl	80035c0 <UART_AdvFeatureConfig>
 8003872:	6823      	ldr	r3, [r4, #0]
 8003874:	685a      	ldr	r2, [r3, #4]
 8003876:	f422 4290 	bic.w	r2, r2, #18432	; 0x4800
 800387a:	605a      	str	r2, [r3, #4]
 800387c:	689a      	ldr	r2, [r3, #8]
 800387e:	f022 022a 	bic.w	r2, r2, #42	; 0x2a
 8003882:	609a      	str	r2, [r3, #8]
 8003884:	681a      	ldr	r2, [r3, #0]
 8003886:	f042 0201 	orr.w	r2, r2, #1
 800388a:	4620      	mov	r0, r4
 800388c:	601a      	str	r2, [r3, #0]
 800388e:	e8bd 4010 	ldmia.w	sp!, {r4, lr}
 8003892:	f7ff bfa1 	b.w	80037d8 <UART_CheckIdleState>
 8003896:	2001      	movs	r0, #1
 8003898:	bd10      	pop	{r4, pc}
	...

0800389c <UART_Start_Receive_IT>:
 800389c:	6883      	ldr	r3, [r0, #8]
 800389e:	b510      	push	{r4, lr}
 80038a0:	f5b3 5f80 	cmp.w	r3, #4096	; 0x1000
 80038a4:	f8a0 2058 	strh.w	r2, [r0, #88]	; 0x58
 80038a8:	f8a0 205a 	strh.w	r2, [r0, #90]	; 0x5a
 80038ac:	f04f 0200 	mov.w	r2, #0
 80038b0:	6541      	str	r1, [r0, #84]	; 0x54
 80038b2:	6642      	str	r2, [r0, #100]	; 0x64
 80038b4:	d132      	bne.n	800391c <UART_Start_Receive_IT+0x80>
 80038b6:	6903      	ldr	r3, [r0, #16]
 80038b8:	bb73      	cbnz	r3, 8003918 <UART_Start_Receive_IT+0x7c>
 80038ba:	f240 13ff 	movw	r3, #511	; 0x1ff
 80038be:	f8a0 305c 	strh.w	r3, [r0, #92]	; 0x5c
 80038c2:	2300      	movs	r3, #0
 80038c4:	f8c0 3080 	str.w	r3, [r0, #128]	; 0x80
 80038c8:	2322      	movs	r3, #34	; 0x22
 80038ca:	67c3      	str	r3, [r0, #124]	; 0x7c
 80038cc:	6802      	ldr	r2, [r0, #0]
 80038ce:	f102 0308 	add.w	r3, r2, #8
 80038d2:	e853 3f00 	ldrex	r3, [r3]
 80038d6:	f043 0301 	orr.w	r3, r3, #1
 80038da:	3208      	adds	r2, #8
 80038dc:	e842 3100 	strex	r1, r3, [r2]
 80038e0:	6802      	ldr	r2, [r0, #0]
 80038e2:	2900      	cmp	r1, #0
 80038e4:	d1f2      	bne.n	80038cc <UART_Start_Receive_IT+0x30>
 80038e6:	6883      	ldr	r3, [r0, #8]
 80038e8:	6901      	ldr	r1, [r0, #16]
 80038ea:	f5b3 5f80 	cmp.w	r3, #4096	; 0x1000
 80038ee:	d126      	bne.n	800393e <UART_Start_Receive_IT+0xa2>
 80038f0:	4b18      	ldr	r3, [pc, #96]	; (8003954 <UART_Start_Receive_IT+0xb8>)
 80038f2:	4c19      	ldr	r4, [pc, #100]	; (8003958 <UART_Start_Receive_IT+0xbc>)
 80038f4:	2900      	cmp	r1, #0
 80038f6:	bf18      	it	ne
 80038f8:	4623      	movne	r3, r4
 80038fa:	6643      	str	r3, [r0, #100]	; 0x64
 80038fc:	2300      	movs	r3, #0
 80038fe:	f880 3074 	strb.w	r3, [r0, #116]	; 0x74
 8003902:	b1f1      	cbz	r1, 8003942 <UART_Start_Receive_IT+0xa6>
 8003904:	e852 3f00 	ldrex	r3, [r2]
 8003908:	f443 7390 	orr.w	r3, r3, #288	; 0x120
 800390c:	e842 3100 	strex	r1, r3, [r2]
 8003910:	2900      	cmp	r1, #0
 8003912:	d1f7      	bne.n	8003904 <UART_Start_Receive_IT+0x68>
 8003914:	2000      	movs	r0, #0
 8003916:	bd10      	pop	{r4, pc}
 8003918:	23ff      	movs	r3, #255	; 0xff
 800391a:	e7d0      	b.n	80038be <UART_Start_Receive_IT+0x22>
 800391c:	b923      	cbnz	r3, 8003928 <UART_Start_Receive_IT+0x8c>
 800391e:	6903      	ldr	r3, [r0, #16]
 8003920:	2b00      	cmp	r3, #0
 8003922:	d0f9      	beq.n	8003918 <UART_Start_Receive_IT+0x7c>
 8003924:	237f      	movs	r3, #127	; 0x7f
 8003926:	e7ca      	b.n	80038be <UART_Start_Receive_IT+0x22>
 8003928:	f1b3 5f80 	cmp.w	r3, #268435456	; 0x10000000
 800392c:	d104      	bne.n	8003938 <UART_Start_Receive_IT+0x9c>
 800392e:	6903      	ldr	r3, [r0, #16]
 8003930:	2b00      	cmp	r3, #0
 8003932:	d0f7      	beq.n	8003924 <UART_Start_Receive_IT+0x88>
 8003934:	233f      	movs	r3, #63	; 0x3f
 8003936:	e7c2      	b.n	80038be <UART_Start_Receive_IT+0x22>
 8003938:	f8a0 205c 	strh.w	r2, [r0, #92]	; 0x5c
 800393c:	e7c1      	b.n	80038c2 <UART_Start_Receive_IT+0x26>
 800393e:	4b06      	ldr	r3, [pc, #24]	; (8003958 <UART_Start_Receive_IT+0xbc>)
 8003940:	e7db      	b.n	80038fa <UART_Start_Receive_IT+0x5e>
 8003942:	e852 3f00 	ldrex	r3, [r2]
 8003946:	f043 0320 	orr.w	r3, r3, #32
 800394a:	e842 3100 	strex	r1, r3, [r2]
 800394e:	2900      	cmp	r1, #0
 8003950:	d1f7      	bne.n	8003942 <UART_Start_Receive_IT+0xa6>
 8003952:	e7df      	b.n	8003914 <UART_Start_Receive_IT+0x78>
 8003954:	08003301 	.word	0x08003301
 8003958:	08003261 	.word	0x08003261

0800395c <HAL_UARTEx_WakeupCallback>:
 800395c:	4770      	bx	lr

0800395e <HAL_UARTEx_ReceiveToIdle_IT>:
 800395e:	b570      	push	{r4, r5, r6, lr}
 8003960:	6fc6      	ldr	r6, [r0, #124]	; 0x7c
 8003962:	2e20      	cmp	r6, #32
 8003964:	4604      	mov	r4, r0
 8003966:	d120      	bne.n	80039aa <HAL_UARTEx_ReceiveToIdle_IT+0x4c>
 8003968:	b909      	cbnz	r1, 800396e <HAL_UARTEx_ReceiveToIdle_IT+0x10>
 800396a:	2001      	movs	r0, #1
 800396c:	bd70      	pop	{r4, r5, r6, pc}
 800396e:	2a00      	cmp	r2, #0
 8003970:	d0fb      	beq.n	800396a <HAL_UARTEx_ReceiveToIdle_IT+0xc>
 8003972:	f890 3074 	ldrb.w	r3, [r0, #116]	; 0x74
 8003976:	2b01      	cmp	r3, #1
 8003978:	d017      	beq.n	80039aa <HAL_UARTEx_ReceiveToIdle_IT+0x4c>
 800397a:	2301      	movs	r3, #1
 800397c:	f880 3074 	strb.w	r3, [r0, #116]	; 0x74
 8003980:	6603      	str	r3, [r0, #96]	; 0x60
 8003982:	f7ff ff8b 	bl	800389c <UART_Start_Receive_IT>
 8003986:	2800      	cmp	r0, #0
 8003988:	d1f0      	bne.n	800396c <HAL_UARTEx_ReceiveToIdle_IT+0xe>
 800398a:	6e23      	ldr	r3, [r4, #96]	; 0x60
 800398c:	2b01      	cmp	r3, #1
 800398e:	d1ec      	bne.n	800396a <HAL_UARTEx_ReceiveToIdle_IT+0xc>
 8003990:	6823      	ldr	r3, [r4, #0]
 8003992:	2210      	movs	r2, #16
 8003994:	621a      	str	r2, [r3, #32]
 8003996:	6822      	ldr	r2, [r4, #0]
 8003998:	e852 3f00 	ldrex	r3, [r2]
 800399c:	f043 0310 	orr.w	r3, r3, #16
 80039a0:	e842 3100 	strex	r1, r3, [r2]
 80039a4:	2900      	cmp	r1, #0
 80039a6:	d1f7      	bne.n	8003998 <HAL_UARTEx_ReceiveToIdle_IT+0x3a>
 80039a8:	e7e0      	b.n	800396c <HAL_UARTEx_ReceiveToIdle_IT+0xe>
 80039aa:	2002      	movs	r0, #2
 80039ac:	e7de      	b.n	800396c <HAL_UARTEx_ReceiveToIdle_IT+0xe>

080039ae <SysTick_Handler>:
 80039ae:	b508      	push	{r3, lr}
 80039b0:	f04f 23e0 	mov.w	r3, #3758153728	; 0xe000e000
 80039b4:	691b      	ldr	r3, [r3, #16]
 80039b6:	f001 f897 	bl	8004ae8 <xTaskGetSchedulerState>
 80039ba:	2801      	cmp	r0, #1
 80039bc:	d003      	beq.n	80039c6 <SysTick_Handler+0x18>
 80039be:	e8bd 4008 	ldmia.w	sp!, {r3, lr}
 80039c2:	f001 bcaf 	b.w	8005324 <xPortSysTickHandler>
 80039c6:	bd08      	pop	{r3, pc}

080039c8 <osKernelInitialize>:
 80039c8:	f3ef 8305 	mrs	r3, IPSR
 80039cc:	b92b      	cbnz	r3, 80039da <osKernelInitialize+0x12>
 80039ce:	4b06      	ldr	r3, [pc, #24]	; (80039e8 <osKernelInitialize+0x20>)
 80039d0:	6818      	ldr	r0, [r3, #0]
 80039d2:	b928      	cbnz	r0, 80039e0 <osKernelInitialize+0x18>
 80039d4:	2201      	movs	r2, #1
 80039d6:	601a      	str	r2, [r3, #0]
 80039d8:	4770      	bx	lr
 80039da:	f06f 0005 	mvn.w	r0, #5
 80039de:	4770      	bx	lr
 80039e0:	f04f 30ff 	mov.w	r0, #4294967295	; 0xffffffff
 80039e4:	4770      	bx	lr
 80039e6:	bf00      	nop
 80039e8:	2000064c 	.word	0x2000064c

080039ec <osKernelStart>:
 80039ec:	b510      	push	{r4, lr}
 80039ee:	f3ef 8405 	mrs	r4, IPSR
 80039f2:	b95c      	cbnz	r4, 8003a0c <osKernelStart+0x20>
 80039f4:	4b08      	ldr	r3, [pc, #32]	; (8003a18 <osKernelStart+0x2c>)
 80039f6:	681a      	ldr	r2, [r3, #0]
 80039f8:	2a01      	cmp	r2, #1
 80039fa:	d10a      	bne.n	8003a12 <osKernelStart+0x26>
 80039fc:	4a07      	ldr	r2, [pc, #28]	; (8003a1c <osKernelStart+0x30>)
 80039fe:	77d4      	strb	r4, [r2, #31]
 8003a00:	2202      	movs	r2, #2
 8003a02:	601a      	str	r2, [r3, #0]
 8003a04:	f000 fdda 	bl	80045bc <vTaskStartScheduler>
 8003a08:	4620      	mov	r0, r4
 8003a0a:	bd10      	pop	{r4, pc}
 8003a0c:	f06f 0005 	mvn.w	r0, #5
 8003a10:	e7fb      	b.n	8003a0a <osKernelStart+0x1e>
 8003a12:	f04f 30ff 	mov.w	r0, #4294967295	; 0xffffffff
 8003a16:	e7f8      	b.n	8003a0a <osKernelStart+0x1e>
 8003a18:	2000064c 	.word	0x2000064c
 8003a1c:	e000ed00 	.word	0xe000ed00

08003a20 <osThreadNew>:
 8003a20:	b5f0      	push	{r4, r5, r6, r7, lr}
 8003a22:	b087      	sub	sp, #28
 8003a24:	4614      	mov	r4, r2
 8003a26:	2200      	movs	r2, #0
 8003a28:	460b      	mov	r3, r1
 8003a2a:	9205      	str	r2, [sp, #20]
 8003a2c:	f3ef 8205 	mrs	r2, IPSR
 8003a30:	b9d2      	cbnz	r2, 8003a68 <osThreadNew+0x48>
 8003a32:	b1c8      	cbz	r0, 8003a68 <osThreadNew+0x48>
 8003a34:	2c00      	cmp	r4, #0
 8003a36:	d02f      	beq.n	8003a98 <osThreadNew+0x78>
 8003a38:	69a5      	ldr	r5, [r4, #24]
 8003a3a:	2d00      	cmp	r5, #0
 8003a3c:	bf08      	it	eq
 8003a3e:	2518      	moveq	r5, #24
 8003a40:	1e69      	subs	r1, r5, #1
 8003a42:	2937      	cmp	r1, #55	; 0x37
 8003a44:	46ac      	mov	ip, r5
 8003a46:	d82b      	bhi.n	8003aa0 <osThreadNew+0x80>
 8003a48:	6861      	ldr	r1, [r4, #4]
 8003a4a:	07c9      	lsls	r1, r1, #31
 8003a4c:	d428      	bmi.n	8003aa0 <osThreadNew+0x80>
 8003a4e:	6966      	ldr	r6, [r4, #20]
 8003a50:	b16e      	cbz	r6, 8003a6e <osThreadNew+0x4e>
 8003a52:	08b2      	lsrs	r2, r6, #2
 8003a54:	e9d4 7e02 	ldrd	r7, lr, [r4, #8]
 8003a58:	6821      	ldr	r1, [r4, #0]
 8003a5a:	b157      	cbz	r7, 8003a72 <osThreadNew+0x52>
 8003a5c:	f1be 0fbb 	cmp.w	lr, #187	; 0xbb
 8003a60:	d902      	bls.n	8003a68 <osThreadNew+0x48>
 8003a62:	6924      	ldr	r4, [r4, #16]
 8003a64:	b104      	cbz	r4, 8003a68 <osThreadNew+0x48>
 8003a66:	b9ee      	cbnz	r6, 8003aa4 <osThreadNew+0x84>
 8003a68:	9805      	ldr	r0, [sp, #20]
 8003a6a:	b007      	add	sp, #28
 8003a6c:	bdf0      	pop	{r4, r5, r6, r7, pc}
 8003a6e:	2280      	movs	r2, #128	; 0x80
 8003a70:	e7f0      	b.n	8003a54 <osThreadNew+0x34>
 8003a72:	f1be 0f00 	cmp.w	lr, #0
 8003a76:	d1f7      	bne.n	8003a68 <osThreadNew+0x48>
 8003a78:	6924      	ldr	r4, [r4, #16]
 8003a7a:	2c00      	cmp	r4, #0
 8003a7c:	d1f4      	bne.n	8003a68 <osThreadNew+0x48>
 8003a7e:	460c      	mov	r4, r1
 8003a80:	a905      	add	r1, sp, #20
 8003a82:	e9cd c100 	strd	ip, r1, [sp]
 8003a86:	b292      	uxth	r2, r2
 8003a88:	4621      	mov	r1, r4
 8003a8a:	f000 fd69 	bl	8004560 <xTaskCreate>
 8003a8e:	2801      	cmp	r0, #1
 8003a90:	bf1c      	itt	ne
 8003a92:	2300      	movne	r3, #0
 8003a94:	9305      	strne	r3, [sp, #20]
 8003a96:	e7e7      	b.n	8003a68 <osThreadNew+0x48>
 8003a98:	f04f 0c18 	mov.w	ip, #24
 8003a9c:	2280      	movs	r2, #128	; 0x80
 8003a9e:	e7ef      	b.n	8003a80 <osThreadNew+0x60>
 8003aa0:	4610      	mov	r0, r2
 8003aa2:	e7e2      	b.n	8003a6a <osThreadNew+0x4a>
 8003aa4:	e9cd 4701 	strd	r4, r7, [sp, #4]
 8003aa8:	9500      	str	r5, [sp, #0]
 8003aaa:	f000 fd21 	bl	80044f0 <xTaskCreateStatic>
 8003aae:	9005      	str	r0, [sp, #20]
 8003ab0:	e7da      	b.n	8003a68 <osThreadNew+0x48>

08003ab2 <osThreadFlagsSet>:
 8003ab2:	b530      	push	{r4, r5, lr}
 8003ab4:	4604      	mov	r4, r0
 8003ab6:	b085      	sub	sp, #20
 8003ab8:	b108      	cbz	r0, 8003abe <osThreadFlagsSet+0xc>
 8003aba:	2900      	cmp	r1, #0
 8003abc:	da05      	bge.n	8003aca <osThreadFlagsSet+0x18>
 8003abe:	f06f 0303 	mvn.w	r3, #3
 8003ac2:	9302      	str	r3, [sp, #8]
 8003ac4:	9802      	ldr	r0, [sp, #8]
 8003ac6:	b005      	add	sp, #20
 8003ac8:	bd30      	pop	{r4, r5, pc}
 8003aca:	f04f 33ff 	mov.w	r3, #4294967295	; 0xffffffff
 8003ace:	9302      	str	r3, [sp, #8]
 8003ad0:	f3ef 8505 	mrs	r5, IPSR
 8003ad4:	b1e5      	cbz	r5, 8003b10 <osThreadFlagsSet+0x5e>
 8003ad6:	2500      	movs	r5, #0
 8003ad8:	ab03      	add	r3, sp, #12
 8003ada:	9300      	str	r3, [sp, #0]
 8003adc:	2201      	movs	r2, #1
 8003ade:	462b      	mov	r3, r5
 8003ae0:	9503      	str	r5, [sp, #12]
 8003ae2:	f001 f8cf 	bl	8004c84 <xTaskGenericNotifyFromISR>
 8003ae6:	ab02      	add	r3, sp, #8
 8003ae8:	9500      	str	r5, [sp, #0]
 8003aea:	462a      	mov	r2, r5
 8003aec:	4629      	mov	r1, r5
 8003aee:	4620      	mov	r0, r4
 8003af0:	f001 f8c8 	bl	8004c84 <xTaskGenericNotifyFromISR>
 8003af4:	9b03      	ldr	r3, [sp, #12]
 8003af6:	2b00      	cmp	r3, #0
 8003af8:	d0e4      	beq.n	8003ac4 <osThreadFlagsSet+0x12>
 8003afa:	f04f 23e0 	mov.w	r3, #3758153728	; 0xe000e000
 8003afe:	f04f 5280 	mov.w	r2, #268435456	; 0x10000000
 8003b02:	f8c3 2d04 	str.w	r2, [r3, #3332]	; 0xd04
 8003b06:	f3bf 8f4f 	dsb	sy
 8003b0a:	f3bf 8f6f 	isb	sy
 8003b0e:	e7d9      	b.n	8003ac4 <osThreadFlagsSet+0x12>
 8003b10:	462b      	mov	r3, r5
 8003b12:	2201      	movs	r2, #1
 8003b14:	f001 f83c 	bl	8004b90 <xTaskGenericNotify>
 8003b18:	ab02      	add	r3, sp, #8
 8003b1a:	462a      	mov	r2, r5
 8003b1c:	4629      	mov	r1, r5
 8003b1e:	4620      	mov	r0, r4
 8003b20:	f001 f836 	bl	8004b90 <xTaskGenericNotify>
 8003b24:	e7ce      	b.n	8003ac4 <osThreadFlagsSet+0x12>

08003b26 <osDelay>:
 8003b26:	b510      	push	{r4, lr}
 8003b28:	f3ef 8405 	mrs	r4, IPSR
 8003b2c:	b924      	cbnz	r4, 8003b38 <osDelay+0x12>
 8003b2e:	b110      	cbz	r0, 8003b36 <osDelay+0x10>
 8003b30:	f000 feac 	bl	800488c <vTaskDelay>
 8003b34:	4620      	mov	r0, r4
 8003b36:	bd10      	pop	{r4, pc}
 8003b38:	f06f 0005 	mvn.w	r0, #5
 8003b3c:	e7fb      	b.n	8003b36 <osDelay+0x10>
	...

08003b40 <vApplicationGetIdleTaskMemory>:
 8003b40:	4b03      	ldr	r3, [pc, #12]	; (8003b50 <vApplicationGetIdleTaskMemory+0x10>)
 8003b42:	6003      	str	r3, [r0, #0]
 8003b44:	4b03      	ldr	r3, [pc, #12]	; (8003b54 <vApplicationGetIdleTaskMemory+0x14>)
 8003b46:	600b      	str	r3, [r1, #0]
 8003b48:	2380      	movs	r3, #128	; 0x80
 8003b4a:	6013      	str	r3, [r2, #0]
 8003b4c:	4770      	bx	lr
 8003b4e:	bf00      	nop
 8003b50:	20000590 	.word	0x20000590
 8003b54:	20000390 	.word	0x20000390

08003b58 <vApplicationGetTimerTaskMemory>:
 8003b58:	4b03      	ldr	r3, [pc, #12]	; (8003b68 <vApplicationGetTimerTaskMemory+0x10>)
 8003b5a:	6003      	str	r3, [r0, #0]
 8003b5c:	4b03      	ldr	r3, [pc, #12]	; (8003b6c <vApplicationGetTimerTaskMemory+0x14>)
 8003b5e:	600b      	str	r3, [r1, #0]
 8003b60:	f44f 7380 	mov.w	r3, #256	; 0x100
 8003b64:	6013      	str	r3, [r2, #0]
 8003b66:	4770      	bx	lr
 8003b68:	20000a50 	.word	0x20000a50
 8003b6c:	20000650 	.word	0x20000650

08003b70 <vListInitialise>:
 8003b70:	f100 0308 	add.w	r3, r0, #8
 8003b74:	f04f 32ff 	mov.w	r2, #4294967295	; 0xffffffff
 8003b78:	e9c0 2302 	strd	r2, r3, [r0, #8]
 8003b7c:	6043      	str	r3, [r0, #4]
 8003b7e:	6103      	str	r3, [r0, #16]
 8003b80:	2300      	movs	r3, #0
 8003b82:	6003      	str	r3, [r0, #0]
 8003b84:	4770      	bx	lr

08003b86 <vListInitialiseItem>:
 8003b86:	2300      	movs	r3, #0
 8003b88:	6103      	str	r3, [r0, #16]
 8003b8a:	4770      	bx	lr

08003b8c <vListInsertEnd>:
 8003b8c:	6843      	ldr	r3, [r0, #4]
 8003b8e:	604b      	str	r3, [r1, #4]
 8003b90:	689a      	ldr	r2, [r3, #8]
 8003b92:	608a      	str	r2, [r1, #8]
 8003b94:	689a      	ldr	r2, [r3, #8]
 8003b96:	6051      	str	r1, [r2, #4]
 8003b98:	6099      	str	r1, [r3, #8]
 8003b9a:	6803      	ldr	r3, [r0, #0]
 8003b9c:	6108      	str	r0, [r1, #16]
 8003b9e:	3301      	adds	r3, #1
 8003ba0:	6003      	str	r3, [r0, #0]
 8003ba2:	4770      	bx	lr

08003ba4 <vListInsert>:
 8003ba4:	b530      	push	{r4, r5, lr}
 8003ba6:	680c      	ldr	r4, [r1, #0]
 8003ba8:	1c63      	adds	r3, r4, #1
 8003baa:	d10a      	bne.n	8003bc2 <vListInsert+0x1e>
 8003bac:	6903      	ldr	r3, [r0, #16]
 8003bae:	685a      	ldr	r2, [r3, #4]
 8003bb0:	604a      	str	r2, [r1, #4]
 8003bb2:	6091      	str	r1, [r2, #8]
 8003bb4:	608b      	str	r3, [r1, #8]
 8003bb6:	6059      	str	r1, [r3, #4]
 8003bb8:	6803      	ldr	r3, [r0, #0]
 8003bba:	6108      	str	r0, [r1, #16]
 8003bbc:	3301      	adds	r3, #1
 8003bbe:	6003      	str	r3, [r0, #0]
 8003bc0:	bd30      	pop	{r4, r5, pc}
 8003bc2:	f100 0208 	add.w	r2, r0, #8
 8003bc6:	4613      	mov	r3, r2
 8003bc8:	6852      	ldr	r2, [r2, #4]
 8003bca:	6815      	ldr	r5, [r2, #0]
 8003bcc:	42a5      	cmp	r5, r4
 8003bce:	d9fa      	bls.n	8003bc6 <vListInsert+0x22>
 8003bd0:	e7ed      	b.n	8003bae <vListInsert+0xa>

08003bd2 <uxListRemove>:
 8003bd2:	e9d0 1201 	ldrd	r1, r2, [r0, #4]
 8003bd6:	6903      	ldr	r3, [r0, #16]
 8003bd8:	608a      	str	r2, [r1, #8]
 8003bda:	6051      	str	r1, [r2, #4]
 8003bdc:	6859      	ldr	r1, [r3, #4]
 8003bde:	4281      	cmp	r1, r0
 8003be0:	bf08      	it	eq
 8003be2:	605a      	streq	r2, [r3, #4]
 8003be4:	2200      	movs	r2, #0
 8003be6:	6102      	str	r2, [r0, #16]
 8003be8:	681a      	ldr	r2, [r3, #0]
 8003bea:	3a01      	subs	r2, #1
 8003bec:	601a      	str	r2, [r3, #0]
 8003bee:	6818      	ldr	r0, [r3, #0]
 8003bf0:	4770      	bx	lr

08003bf2 <prvIsQueueEmpty>:
 8003bf2:	b510      	push	{r4, lr}
 8003bf4:	4604      	mov	r4, r0
 8003bf6:	f001 fb2d 	bl	8005254 <vPortEnterCritical>
 8003bfa:	6ba4      	ldr	r4, [r4, #56]	; 0x38
 8003bfc:	f001 fb4a 	bl	8005294 <vPortExitCritical>
 8003c00:	fab4 f084 	clz	r0, r4
 8003c04:	0940      	lsrs	r0, r0, #5
 8003c06:	bd10      	pop	{r4, pc}

08003c08 <prvCopyDataToQueue>:
 8003c08:	b5f8      	push	{r3, r4, r5, r6, r7, lr}
 8003c0a:	4615      	mov	r5, r2
 8003c0c:	6c02      	ldr	r2, [r0, #64]	; 0x40
 8003c0e:	6b86      	ldr	r6, [r0, #56]	; 0x38
 8003c10:	4604      	mov	r4, r0
 8003c12:	b952      	cbnz	r2, 8003c2a <prvCopyDataToQueue+0x22>
 8003c14:	6807      	ldr	r7, [r0, #0]
 8003c16:	bb47      	cbnz	r7, 8003c6a <prvCopyDataToQueue+0x62>
 8003c18:	6880      	ldr	r0, [r0, #8]
 8003c1a:	f000 ff75 	bl	8004b08 <xTaskPriorityDisinherit>
 8003c1e:	60a7      	str	r7, [r4, #8]
 8003c20:	4605      	mov	r5, r0
 8003c22:	3601      	adds	r6, #1
 8003c24:	63a6      	str	r6, [r4, #56]	; 0x38
 8003c26:	4628      	mov	r0, r5
 8003c28:	bdf8      	pop	{r3, r4, r5, r6, r7, pc}
 8003c2a:	b965      	cbnz	r5, 8003c46 <prvCopyDataToQueue+0x3e>
 8003c2c:	6840      	ldr	r0, [r0, #4]
 8003c2e:	f001 fd75 	bl	800571c <memcpy>
 8003c32:	6863      	ldr	r3, [r4, #4]
 8003c34:	6c22      	ldr	r2, [r4, #64]	; 0x40
 8003c36:	4413      	add	r3, r2
 8003c38:	68a2      	ldr	r2, [r4, #8]
 8003c3a:	6063      	str	r3, [r4, #4]
 8003c3c:	4293      	cmp	r3, r2
 8003c3e:	d3f0      	bcc.n	8003c22 <prvCopyDataToQueue+0x1a>
 8003c40:	6823      	ldr	r3, [r4, #0]
 8003c42:	6063      	str	r3, [r4, #4]
 8003c44:	e7ed      	b.n	8003c22 <prvCopyDataToQueue+0x1a>
 8003c46:	68c0      	ldr	r0, [r0, #12]
 8003c48:	f001 fd68 	bl	800571c <memcpy>
 8003c4c:	6c22      	ldr	r2, [r4, #64]	; 0x40
 8003c4e:	68e3      	ldr	r3, [r4, #12]
 8003c50:	4251      	negs	r1, r2
 8003c52:	1a9b      	subs	r3, r3, r2
 8003c54:	6822      	ldr	r2, [r4, #0]
 8003c56:	60e3      	str	r3, [r4, #12]
 8003c58:	4293      	cmp	r3, r2
 8003c5a:	bf3e      	ittt	cc
 8003c5c:	68a3      	ldrcc	r3, [r4, #8]
 8003c5e:	185b      	addcc	r3, r3, r1
 8003c60:	60e3      	strcc	r3, [r4, #12]
 8003c62:	2d02      	cmp	r5, #2
 8003c64:	d101      	bne.n	8003c6a <prvCopyDataToQueue+0x62>
 8003c66:	b116      	cbz	r6, 8003c6e <prvCopyDataToQueue+0x66>
 8003c68:	3e01      	subs	r6, #1
 8003c6a:	2500      	movs	r5, #0
 8003c6c:	e7d9      	b.n	8003c22 <prvCopyDataToQueue+0x1a>
 8003c6e:	4635      	mov	r5, r6
 8003c70:	e7d7      	b.n	8003c22 <prvCopyDataToQueue+0x1a>

08003c72 <prvCopyDataFromQueue>:
 8003c72:	4603      	mov	r3, r0
 8003c74:	b410      	push	{r4}
 8003c76:	6c1a      	ldr	r2, [r3, #64]	; 0x40
 8003c78:	4608      	mov	r0, r1
 8003c7a:	b16a      	cbz	r2, 8003c98 <prvCopyDataFromQueue+0x26>
 8003c7c:	68dc      	ldr	r4, [r3, #12]
 8003c7e:	6899      	ldr	r1, [r3, #8]
 8003c80:	4414      	add	r4, r2
 8003c82:	428c      	cmp	r4, r1
 8003c84:	bf28      	it	cs
 8003c86:	6819      	ldrcs	r1, [r3, #0]
 8003c88:	60dc      	str	r4, [r3, #12]
 8003c8a:	bf28      	it	cs
 8003c8c:	60d9      	strcs	r1, [r3, #12]
 8003c8e:	68d9      	ldr	r1, [r3, #12]
 8003c90:	f85d 4b04 	ldr.w	r4, [sp], #4
 8003c94:	f001 bd42 	b.w	800571c <memcpy>
 8003c98:	f85d 4b04 	ldr.w	r4, [sp], #4
 8003c9c:	4770      	bx	lr

08003c9e <prvUnlockQueue>:
 8003c9e:	b570      	push	{r4, r5, r6, lr}
 8003ca0:	4604      	mov	r4, r0
 8003ca2:	f001 fad7 	bl	8005254 <vPortEnterCritical>
 8003ca6:	f894 5045 	ldrb.w	r5, [r4, #69]	; 0x45
 8003caa:	f104 0624 	add.w	r6, r4, #36	; 0x24
 8003cae:	b26d      	sxtb	r5, r5
 8003cb0:	2d00      	cmp	r5, #0
 8003cb2:	dc14      	bgt.n	8003cde <prvUnlockQueue+0x40>
 8003cb4:	23ff      	movs	r3, #255	; 0xff
 8003cb6:	f884 3045 	strb.w	r3, [r4, #69]	; 0x45
 8003cba:	f001 faeb 	bl	8005294 <vPortExitCritical>
 8003cbe:	f001 fac9 	bl	8005254 <vPortEnterCritical>
 8003cc2:	f894 5044 	ldrb.w	r5, [r4, #68]	; 0x44
 8003cc6:	f104 0610 	add.w	r6, r4, #16
 8003cca:	b26d      	sxtb	r5, r5
 8003ccc:	2d00      	cmp	r5, #0
 8003cce:	dc12      	bgt.n	8003cf6 <prvUnlockQueue+0x58>
 8003cd0:	23ff      	movs	r3, #255	; 0xff
 8003cd2:	f884 3044 	strb.w	r3, [r4, #68]	; 0x44
 8003cd6:	e8bd 4070 	ldmia.w	sp!, {r4, r5, r6, lr}
 8003cda:	f001 badb 	b.w	8005294 <vPortExitCritical>
 8003cde:	6a63      	ldr	r3, [r4, #36]	; 0x24
 8003ce0:	2b00      	cmp	r3, #0
 8003ce2:	d0e7      	beq.n	8003cb4 <prvUnlockQueue+0x16>
 8003ce4:	4630      	mov	r0, r6
 8003ce6:	f000 fe6d 	bl	80049c4 <xTaskRemoveFromEventList>
 8003cea:	b108      	cbz	r0, 8003cf0 <prvUnlockQueue+0x52>
 8003cec:	f000 fef6 	bl	8004adc <vTaskMissedYield>
 8003cf0:	3d01      	subs	r5, #1
 8003cf2:	b26d      	sxtb	r5, r5
 8003cf4:	e7dc      	b.n	8003cb0 <prvUnlockQueue+0x12>
 8003cf6:	6923      	ldr	r3, [r4, #16]
 8003cf8:	2b00      	cmp	r3, #0
 8003cfa:	d0e9      	beq.n	8003cd0 <prvUnlockQueue+0x32>
 8003cfc:	4630      	mov	r0, r6
 8003cfe:	f000 fe61 	bl	80049c4 <xTaskRemoveFromEventList>
 8003d02:	b108      	cbz	r0, 8003d08 <prvUnlockQueue+0x6a>
 8003d04:	f000 feea 	bl	8004adc <vTaskMissedYield>
 8003d08:	3d01      	subs	r5, #1
 8003d0a:	b26d      	sxtb	r5, r5
 8003d0c:	e7de      	b.n	8003ccc <prvUnlockQueue+0x2e>

08003d0e <xQueueGenericReset>:
 8003d0e:	b538      	push	{r3, r4, r5, lr}
 8003d10:	460d      	mov	r5, r1
 8003d12:	4604      	mov	r4, r0
 8003d14:	b940      	cbnz	r0, 8003d28 <xQueueGenericReset+0x1a>
 8003d16:	f04f 0350 	mov.w	r3, #80	; 0x50
 8003d1a:	f383 8811 	msr	BASEPRI, r3
 8003d1e:	f3bf 8f6f 	isb	sy
 8003d22:	f3bf 8f4f 	dsb	sy
 8003d26:	e7fe      	b.n	8003d26 <xQueueGenericReset+0x18>
 8003d28:	f001 fa94 	bl	8005254 <vPortEnterCritical>
 8003d2c:	e9d4 310f 	ldrd	r3, r1, [r4, #60]	; 0x3c
 8003d30:	6822      	ldr	r2, [r4, #0]
 8003d32:	6062      	str	r2, [r4, #4]
 8003d34:	434b      	muls	r3, r1
 8003d36:	18d0      	adds	r0, r2, r3
 8003d38:	1a5b      	subs	r3, r3, r1
 8003d3a:	4413      	add	r3, r2
 8003d3c:	60a0      	str	r0, [r4, #8]
 8003d3e:	60e3      	str	r3, [r4, #12]
 8003d40:	2000      	movs	r0, #0
 8003d42:	23ff      	movs	r3, #255	; 0xff
 8003d44:	63a0      	str	r0, [r4, #56]	; 0x38
 8003d46:	f884 3044 	strb.w	r3, [r4, #68]	; 0x44
 8003d4a:	f884 3045 	strb.w	r3, [r4, #69]	; 0x45
 8003d4e:	b9a5      	cbnz	r5, 8003d7a <xQueueGenericReset+0x6c>
 8003d50:	6923      	ldr	r3, [r4, #16]
 8003d52:	b173      	cbz	r3, 8003d72 <xQueueGenericReset+0x64>
 8003d54:	f104 0010 	add.w	r0, r4, #16
 8003d58:	f000 fe34 	bl	80049c4 <xTaskRemoveFromEventList>
 8003d5c:	b148      	cbz	r0, 8003d72 <xQueueGenericReset+0x64>
 8003d5e:	f04f 23e0 	mov.w	r3, #3758153728	; 0xe000e000
 8003d62:	f04f 5280 	mov.w	r2, #268435456	; 0x10000000
 8003d66:	f8c3 2d04 	str.w	r2, [r3, #3332]	; 0xd04
 8003d6a:	f3bf 8f4f 	dsb	sy
 8003d6e:	f3bf 8f6f 	isb	sy
 8003d72:	f001 fa8f 	bl	8005294 <vPortExitCritical>
 8003d76:	2001      	movs	r0, #1
 8003d78:	bd38      	pop	{r3, r4, r5, pc}
 8003d7a:	f104 0010 	add.w	r0, r4, #16
 8003d7e:	f7ff fef7 	bl	8003b70 <vListInitialise>
 8003d82:	f104 0024 	add.w	r0, r4, #36	; 0x24
 8003d86:	f7ff fef3 	bl	8003b70 <vListInitialise>
 8003d8a:	e7f2      	b.n	8003d72 <xQueueGenericReset+0x64>

08003d8c <xQueueGenericCreateStatic>:
 8003d8c:	b513      	push	{r0, r1, r4, lr}
 8003d8e:	461c      	mov	r4, r3
 8003d90:	b940      	cbnz	r0, 8003da4 <xQueueGenericCreateStatic+0x18>
 8003d92:	f04f 0350 	mov.w	r3, #80	; 0x50
 8003d96:	f383 8811 	msr	BASEPRI, r3
 8003d9a:	f3bf 8f6f 	isb	sy
 8003d9e:	f3bf 8f4f 	dsb	sy
 8003da2:	e7fe      	b.n	8003da2 <xQueueGenericCreateStatic+0x16>
 8003da4:	b943      	cbnz	r3, 8003db8 <xQueueGenericCreateStatic+0x2c>
 8003da6:	f04f 0350 	mov.w	r3, #80	; 0x50
 8003daa:	f383 8811 	msr	BASEPRI, r3
 8003dae:	f3bf 8f6f 	isb	sy
 8003db2:	f3bf 8f4f 	dsb	sy
 8003db6:	e7fe      	b.n	8003db6 <xQueueGenericCreateStatic+0x2a>
 8003db8:	b14a      	cbz	r2, 8003dce <xQueueGenericCreateStatic+0x42>
 8003dba:	b991      	cbnz	r1, 8003de2 <xQueueGenericCreateStatic+0x56>
 8003dbc:	f04f 0350 	mov.w	r3, #80	; 0x50
 8003dc0:	f383 8811 	msr	BASEPRI, r3
 8003dc4:	f3bf 8f6f 	isb	sy
 8003dc8:	f3bf 8f4f 	dsb	sy
 8003dcc:	e7fe      	b.n	8003dcc <xQueueGenericCreateStatic+0x40>
 8003dce:	b141      	cbz	r1, 8003de2 <xQueueGenericCreateStatic+0x56>
 8003dd0:	f04f 0350 	mov.w	r3, #80	; 0x50
 8003dd4:	f383 8811 	msr	BASEPRI, r3
 8003dd8:	f3bf 8f6f 	isb	sy
 8003ddc:	f3bf 8f4f 	dsb	sy
 8003de0:	e7fe      	b.n	8003de0 <xQueueGenericCreateStatic+0x54>
 8003de2:	2350      	movs	r3, #80	; 0x50
 8003de4:	9301      	str	r3, [sp, #4]
 8003de6:	9b01      	ldr	r3, [sp, #4]
 8003de8:	2b50      	cmp	r3, #80	; 0x50
 8003dea:	d008      	beq.n	8003dfe <xQueueGenericCreateStatic+0x72>
 8003dec:	f04f 0350 	mov.w	r3, #80	; 0x50
 8003df0:	f383 8811 	msr	BASEPRI, r3
 8003df4:	f3bf 8f6f 	isb	sy
 8003df8:	f3bf 8f4f 	dsb	sy
 8003dfc:	e7fe      	b.n	8003dfc <xQueueGenericCreateStatic+0x70>
 8003dfe:	2900      	cmp	r1, #0
 8003e00:	bf08      	it	eq
 8003e02:	4622      	moveq	r2, r4
 8003e04:	9b01      	ldr	r3, [sp, #4]
 8003e06:	6022      	str	r2, [r4, #0]
 8003e08:	2301      	movs	r3, #1
 8003e0a:	e9c4 010f 	strd	r0, r1, [r4, #60]	; 0x3c
 8003e0e:	f884 3046 	strb.w	r3, [r4, #70]	; 0x46
 8003e12:	4619      	mov	r1, r3
 8003e14:	4620      	mov	r0, r4
 8003e16:	f7ff ff7a 	bl	8003d0e <xQueueGenericReset>
 8003e1a:	f89d 3010 	ldrb.w	r3, [sp, #16]
 8003e1e:	f884 304c 	strb.w	r3, [r4, #76]	; 0x4c
 8003e22:	4620      	mov	r0, r4
 8003e24:	b002      	add	sp, #8
 8003e26:	bd10      	pop	{r4, pc}

08003e28 <xQueueGenericSend>:
 8003e28:	e92d 43f0 	stmdb	sp!, {r4, r5, r6, r7, r8, r9, lr}
 8003e2c:	b085      	sub	sp, #20
 8003e2e:	4688      	mov	r8, r1
 8003e30:	9201      	str	r2, [sp, #4]
 8003e32:	461f      	mov	r7, r3
 8003e34:	4604      	mov	r4, r0
 8003e36:	b940      	cbnz	r0, 8003e4a <xQueueGenericSend+0x22>
 8003e38:	f04f 0350 	mov.w	r3, #80	; 0x50
 8003e3c:	f383 8811 	msr	BASEPRI, r3
 8003e40:	f3bf 8f6f 	isb	sy
 8003e44:	f3bf 8f4f 	dsb	sy
 8003e48:	e7fe      	b.n	8003e48 <xQueueGenericSend+0x20>
 8003e4a:	b951      	cbnz	r1, 8003e62 <xQueueGenericSend+0x3a>
 8003e4c:	6c03      	ldr	r3, [r0, #64]	; 0x40
 8003e4e:	b143      	cbz	r3, 8003e62 <xQueueGenericSend+0x3a>
 8003e50:	f04f 0350 	mov.w	r3, #80	; 0x50
 8003e54:	f383 8811 	msr	BASEPRI, r3
 8003e58:	f3bf 8f6f 	isb	sy
 8003e5c:	f3bf 8f4f 	dsb	sy
 8003e60:	e7fe      	b.n	8003e60 <xQueueGenericSend+0x38>
 8003e62:	2f02      	cmp	r7, #2
 8003e64:	d10b      	bne.n	8003e7e <xQueueGenericSend+0x56>
 8003e66:	6be3      	ldr	r3, [r4, #60]	; 0x3c
 8003e68:	2b01      	cmp	r3, #1
 8003e6a:	d008      	beq.n	8003e7e <xQueueGenericSend+0x56>
 8003e6c:	f04f 0350 	mov.w	r3, #80	; 0x50
 8003e70:	f383 8811 	msr	BASEPRI, r3
 8003e74:	f3bf 8f6f 	isb	sy
 8003e78:	f3bf 8f4f 	dsb	sy
 8003e7c:	e7fe      	b.n	8003e7c <xQueueGenericSend+0x54>
 8003e7e:	f000 fe33 	bl	8004ae8 <xTaskGetSchedulerState>
 8003e82:	4606      	mov	r6, r0
 8003e84:	b950      	cbnz	r0, 8003e9c <xQueueGenericSend+0x74>
 8003e86:	9b01      	ldr	r3, [sp, #4]
 8003e88:	b14b      	cbz	r3, 8003e9e <xQueueGenericSend+0x76>
 8003e8a:	f04f 0350 	mov.w	r3, #80	; 0x50
 8003e8e:	f383 8811 	msr	BASEPRI, r3
 8003e92:	f3bf 8f6f 	isb	sy
 8003e96:	f3bf 8f4f 	dsb	sy
 8003e9a:	e7fe      	b.n	8003e9a <xQueueGenericSend+0x72>
 8003e9c:	2600      	movs	r6, #0
 8003e9e:	f04f 0900 	mov.w	r9, #0
 8003ea2:	e037      	b.n	8003f14 <xQueueGenericSend+0xec>
 8003ea4:	9d01      	ldr	r5, [sp, #4]
 8003ea6:	b91d      	cbnz	r5, 8003eb0 <xQueueGenericSend+0x88>
 8003ea8:	f001 f9f4 	bl	8005294 <vPortExitCritical>
 8003eac:	2000      	movs	r0, #0
 8003eae:	e052      	b.n	8003f56 <xQueueGenericSend+0x12e>
 8003eb0:	b916      	cbnz	r6, 8003eb8 <xQueueGenericSend+0x90>
 8003eb2:	a802      	add	r0, sp, #8
 8003eb4:	f000 fdca 	bl	8004a4c <vTaskInternalSetTimeOutState>
 8003eb8:	f001 f9ec 	bl	8005294 <vPortExitCritical>
 8003ebc:	f000 fbce 	bl	800465c <vTaskSuspendAll>
 8003ec0:	f001 f9c8 	bl	8005254 <vPortEnterCritical>
 8003ec4:	f894 3044 	ldrb.w	r3, [r4, #68]	; 0x44
 8003ec8:	2bff      	cmp	r3, #255	; 0xff
 8003eca:	bf08      	it	eq
 8003ecc:	f884 9044 	strbeq.w	r9, [r4, #68]	; 0x44
 8003ed0:	f894 3045 	ldrb.w	r3, [r4, #69]	; 0x45
 8003ed4:	2bff      	cmp	r3, #255	; 0xff
 8003ed6:	bf08      	it	eq
 8003ed8:	f884 9045 	strbeq.w	r9, [r4, #69]	; 0x45
 8003edc:	f001 f9da 	bl	8005294 <vPortExitCritical>
 8003ee0:	a901      	add	r1, sp, #4
 8003ee2:	a802      	add	r0, sp, #8
 8003ee4:	f000 fdbe 	bl	8004a64 <xTaskCheckForTimeOut>
 8003ee8:	2800      	cmp	r0, #0
 8003eea:	d14a      	bne.n	8003f82 <xQueueGenericSend+0x15a>
 8003eec:	f001 f9b2 	bl	8005254 <vPortEnterCritical>
 8003ef0:	6ba2      	ldr	r2, [r4, #56]	; 0x38
 8003ef2:	6be3      	ldr	r3, [r4, #60]	; 0x3c
 8003ef4:	429a      	cmp	r2, r3
 8003ef6:	d131      	bne.n	8003f5c <xQueueGenericSend+0x134>
 8003ef8:	f001 f9cc 	bl	8005294 <vPortExitCritical>
 8003efc:	9901      	ldr	r1, [sp, #4]
 8003efe:	f104 0010 	add.w	r0, r4, #16
 8003f02:	f000 fd27 	bl	8004954 <vTaskPlaceOnEventList>
 8003f06:	4620      	mov	r0, r4
 8003f08:	f7ff fec9 	bl	8003c9e <prvUnlockQueue>
 8003f0c:	f000 fc4a 	bl	80047a4 <xTaskResumeAll>
 8003f10:	b360      	cbz	r0, 8003f6c <xQueueGenericSend+0x144>
 8003f12:	2601      	movs	r6, #1
 8003f14:	f001 f99e 	bl	8005254 <vPortEnterCritical>
 8003f18:	6ba2      	ldr	r2, [r4, #56]	; 0x38
 8003f1a:	6be3      	ldr	r3, [r4, #60]	; 0x3c
 8003f1c:	429a      	cmp	r2, r3
 8003f1e:	d301      	bcc.n	8003f24 <xQueueGenericSend+0xfc>
 8003f20:	2f02      	cmp	r7, #2
 8003f22:	d1bf      	bne.n	8003ea4 <xQueueGenericSend+0x7c>
 8003f24:	463a      	mov	r2, r7
 8003f26:	4641      	mov	r1, r8
 8003f28:	4620      	mov	r0, r4
 8003f2a:	f7ff fe6d 	bl	8003c08 <prvCopyDataToQueue>
 8003f2e:	6a63      	ldr	r3, [r4, #36]	; 0x24
 8003f30:	b11b      	cbz	r3, 8003f3a <xQueueGenericSend+0x112>
 8003f32:	f104 0024 	add.w	r0, r4, #36	; 0x24
 8003f36:	f000 fd45 	bl	80049c4 <xTaskRemoveFromEventList>
 8003f3a:	b148      	cbz	r0, 8003f50 <xQueueGenericSend+0x128>
 8003f3c:	f04f 23e0 	mov.w	r3, #3758153728	; 0xe000e000
 8003f40:	f04f 5280 	mov.w	r2, #268435456	; 0x10000000
 8003f44:	f8c3 2d04 	str.w	r2, [r3, #3332]	; 0xd04
 8003f48:	f3bf 8f4f 	dsb	sy
 8003f4c:	f3bf 8f6f 	isb	sy
 8003f50:	f001 f9a0 	bl	8005294 <vPortExitCritical>
 8003f54:	2001      	movs	r0, #1
 8003f56:	b005      	add	sp, #20
 8003f58:	e8bd 83f0 	ldmia.w	sp!, {r4, r5, r6, r7, r8, r9, pc}
 8003f5c:	f001 f99a 	bl	8005294 <vPortExitCritical>
 8003f60:	4620      	mov	r0, r4
 8003f62:	f7ff fe9c 	bl	8003c9e <prvUnlockQueue>
 8003f66:	f000 fc1d 	bl	80047a4 <xTaskResumeAll>
 8003f6a:	e7d2      	b.n	8003f12 <xQueueGenericSend+0xea>
 8003f6c:	f04f 23e0 	mov.w	r3, #3758153728	; 0xe000e000
 8003f70:	f04f 5280 	mov.w	r2, #268435456	; 0x10000000
 8003f74:	f8c3 2d04 	str.w	r2, [r3, #3332]	; 0xd04
 8003f78:	f3bf 8f4f 	dsb	sy
 8003f7c:	f3bf 8f6f 	isb	sy
 8003f80:	e7c7      	b.n	8003f12 <xQueueGenericSend+0xea>
 8003f82:	4620      	mov	r0, r4
 8003f84:	f7ff fe8b 	bl	8003c9e <prvUnlockQueue>
 8003f88:	f000 fc0c 	bl	80047a4 <xTaskResumeAll>
 8003f8c:	e78e      	b.n	8003eac <xQueueGenericSend+0x84>

08003f8e <xQueueGenericSendFromISR>:
 8003f8e:	e92d 43f8 	stmdb	sp!, {r3, r4, r5, r6, r7, r8, r9, lr}
 8003f92:	4689      	mov	r9, r1
 8003f94:	4690      	mov	r8, r2
 8003f96:	461f      	mov	r7, r3
 8003f98:	4604      	mov	r4, r0
 8003f9a:	b940      	cbnz	r0, 8003fae <xQueueGenericSendFromISR+0x20>
 8003f9c:	f04f 0350 	mov.w	r3, #80	; 0x50
 8003fa0:	f383 8811 	msr	BASEPRI, r3
 8003fa4:	f3bf 8f6f 	isb	sy
 8003fa8:	f3bf 8f4f 	dsb	sy
 8003fac:	e7fe      	b.n	8003fac <xQueueGenericSendFromISR+0x1e>
 8003fae:	b951      	cbnz	r1, 8003fc6 <xQueueGenericSendFromISR+0x38>
 8003fb0:	6c03      	ldr	r3, [r0, #64]	; 0x40
 8003fb2:	b143      	cbz	r3, 8003fc6 <xQueueGenericSendFromISR+0x38>
 8003fb4:	f04f 0350 	mov.w	r3, #80	; 0x50
 8003fb8:	f383 8811 	msr	BASEPRI, r3
 8003fbc:	f3bf 8f6f 	isb	sy
 8003fc0:	f3bf 8f4f 	dsb	sy
 8003fc4:	e7fe      	b.n	8003fc4 <xQueueGenericSendFromISR+0x36>
 8003fc6:	2f02      	cmp	r7, #2
 8003fc8:	d10b      	bne.n	8003fe2 <xQueueGenericSendFromISR+0x54>
 8003fca:	6be3      	ldr	r3, [r4, #60]	; 0x3c
 8003fcc:	2b01      	cmp	r3, #1
 8003fce:	d008      	beq.n	8003fe2 <xQueueGenericSendFromISR+0x54>
 8003fd0:	f04f 0350 	mov.w	r3, #80	; 0x50
 8003fd4:	f383 8811 	msr	BASEPRI, r3
 8003fd8:	f3bf 8f6f 	isb	sy
 8003fdc:	f3bf 8f4f 	dsb	sy
 8003fe0:	e7fe      	b.n	8003fe0 <xQueueGenericSendFromISR+0x52>
 8003fe2:	f001 fa4d 	bl	8005480 <vPortValidateInterruptPriority>
 8003fe6:	f3ef 8611 	mrs	r6, BASEPRI
 8003fea:	f04f 0350 	mov.w	r3, #80	; 0x50
 8003fee:	f383 8811 	msr	BASEPRI, r3
 8003ff2:	f3bf 8f6f 	isb	sy
 8003ff6:	f3bf 8f4f 	dsb	sy
 8003ffa:	6ba2      	ldr	r2, [r4, #56]	; 0x38
 8003ffc:	6be3      	ldr	r3, [r4, #60]	; 0x3c
 8003ffe:	429a      	cmp	r2, r3
 8004000:	d301      	bcc.n	8004006 <xQueueGenericSendFromISR+0x78>
 8004002:	2f02      	cmp	r7, #2
 8004004:	d123      	bne.n	800404e <xQueueGenericSendFromISR+0xc0>
 8004006:	f894 5045 	ldrb.w	r5, [r4, #69]	; 0x45
 800400a:	6ba3      	ldr	r3, [r4, #56]	; 0x38
 800400c:	b26d      	sxtb	r5, r5
 800400e:	463a      	mov	r2, r7
 8004010:	4649      	mov	r1, r9
 8004012:	4620      	mov	r0, r4
 8004014:	f7ff fdf8 	bl	8003c08 <prvCopyDataToQueue>
 8004018:	1c6b      	adds	r3, r5, #1
 800401a:	d113      	bne.n	8004044 <xQueueGenericSendFromISR+0xb6>
 800401c:	6a63      	ldr	r3, [r4, #36]	; 0x24
 800401e:	b90b      	cbnz	r3, 8004024 <xQueueGenericSendFromISR+0x96>
 8004020:	2001      	movs	r0, #1
 8004022:	e00b      	b.n	800403c <xQueueGenericSendFromISR+0xae>
 8004024:	f104 0024 	add.w	r0, r4, #36	; 0x24
 8004028:	f000 fccc 	bl	80049c4 <xTaskRemoveFromEventList>
 800402c:	2800      	cmp	r0, #0
 800402e:	d0f7      	beq.n	8004020 <xQueueGenericSendFromISR+0x92>
 8004030:	f1b8 0f00 	cmp.w	r8, #0
 8004034:	d0f4      	beq.n	8004020 <xQueueGenericSendFromISR+0x92>
 8004036:	2001      	movs	r0, #1
 8004038:	f8c8 0000 	str.w	r0, [r8]
 800403c:	f386 8811 	msr	BASEPRI, r6
 8004040:	e8bd 83f8 	ldmia.w	sp!, {r3, r4, r5, r6, r7, r8, r9, pc}
 8004044:	3501      	adds	r5, #1
 8004046:	b26d      	sxtb	r5, r5
 8004048:	f884 5045 	strb.w	r5, [r4, #69]	; 0x45
 800404c:	e7e8      	b.n	8004020 <xQueueGenericSendFromISR+0x92>
 800404e:	2000      	movs	r0, #0
 8004050:	e7f4      	b.n	800403c <xQueueGenericSendFromISR+0xae>

08004052 <xQueueReceive>:
 8004052:	e92d 41ff 	stmdb	sp!, {r0, r1, r2, r3, r4, r5, r6, r7, r8, lr}
 8004056:	460f      	mov	r7, r1
 8004058:	9201      	str	r2, [sp, #4]
 800405a:	4604      	mov	r4, r0
 800405c:	b940      	cbnz	r0, 8004070 <xQueueReceive+0x1e>
 800405e:	f04f 0350 	mov.w	r3, #80	; 0x50
 8004062:	f383 8811 	msr	BASEPRI, r3
 8004066:	f3bf 8f6f 	isb	sy
 800406a:	f3bf 8f4f 	dsb	sy
 800406e:	e7fe      	b.n	800406e <xQueueReceive+0x1c>
 8004070:	b951      	cbnz	r1, 8004088 <xQueueReceive+0x36>
 8004072:	6c03      	ldr	r3, [r0, #64]	; 0x40
 8004074:	b143      	cbz	r3, 8004088 <xQueueReceive+0x36>
 8004076:	f04f 0350 	mov.w	r3, #80	; 0x50
 800407a:	f383 8811 	msr	BASEPRI, r3
 800407e:	f3bf 8f6f 	isb	sy
 8004082:	f3bf 8f4f 	dsb	sy
 8004086:	e7fe      	b.n	8004086 <xQueueReceive+0x34>
 8004088:	f000 fd2e 	bl	8004ae8 <xTaskGetSchedulerState>
 800408c:	4606      	mov	r6, r0
 800408e:	b950      	cbnz	r0, 80040a6 <xQueueReceive+0x54>
 8004090:	9b01      	ldr	r3, [sp, #4]
 8004092:	b14b      	cbz	r3, 80040a8 <xQueueReceive+0x56>
 8004094:	f04f 0350 	mov.w	r3, #80	; 0x50
 8004098:	f383 8811 	msr	BASEPRI, r3
 800409c:	f3bf 8f6f 	isb	sy
 80040a0:	f3bf 8f4f 	dsb	sy
 80040a4:	e7fe      	b.n	80040a4 <xQueueReceive+0x52>
 80040a6:	2600      	movs	r6, #0
 80040a8:	f04f 0800 	mov.w	r8, #0
 80040ac:	e03d      	b.n	800412a <xQueueReceive+0xd8>
 80040ae:	9d01      	ldr	r5, [sp, #4]
 80040b0:	b91d      	cbnz	r5, 80040ba <xQueueReceive+0x68>
 80040b2:	f001 f8ef 	bl	8005294 <vPortExitCritical>
 80040b6:	2000      	movs	r0, #0
 80040b8:	e056      	b.n	8004168 <xQueueReceive+0x116>
 80040ba:	b916      	cbnz	r6, 80040c2 <xQueueReceive+0x70>
 80040bc:	a802      	add	r0, sp, #8
 80040be:	f000 fcc5 	bl	8004a4c <vTaskInternalSetTimeOutState>
 80040c2:	f001 f8e7 	bl	8005294 <vPortExitCritical>
 80040c6:	f000 fac9 	bl	800465c <vTaskSuspendAll>
 80040ca:	f001 f8c3 	bl	8005254 <vPortEnterCritical>
 80040ce:	f894 3044 	ldrb.w	r3, [r4, #68]	; 0x44
 80040d2:	2bff      	cmp	r3, #255	; 0xff
 80040d4:	bf08      	it	eq
 80040d6:	f884 8044 	strbeq.w	r8, [r4, #68]	; 0x44
 80040da:	f894 3045 	ldrb.w	r3, [r4, #69]	; 0x45
 80040de:	2bff      	cmp	r3, #255	; 0xff
 80040e0:	bf08      	it	eq
 80040e2:	f884 8045 	strbeq.w	r8, [r4, #69]	; 0x45
 80040e6:	f001 f8d5 	bl	8005294 <vPortExitCritical>
 80040ea:	a901      	add	r1, sp, #4
 80040ec:	a802      	add	r0, sp, #8
 80040ee:	f000 fcb9 	bl	8004a64 <xTaskCheckForTimeOut>
 80040f2:	2800      	cmp	r0, #0
 80040f4:	d141      	bne.n	800417a <xQueueReceive+0x128>
 80040f6:	4620      	mov	r0, r4
 80040f8:	f7ff fd7b 	bl	8003bf2 <prvIsQueueEmpty>
 80040fc:	b3b8      	cbz	r0, 800416e <xQueueReceive+0x11c>
 80040fe:	9901      	ldr	r1, [sp, #4]
 8004100:	f104 0024 	add.w	r0, r4, #36	; 0x24
 8004104:	f000 fc26 	bl	8004954 <vTaskPlaceOnEventList>
 8004108:	4620      	mov	r0, r4
 800410a:	f7ff fdc8 	bl	8003c9e <prvUnlockQueue>
 800410e:	f000 fb49 	bl	80047a4 <xTaskResumeAll>
 8004112:	b948      	cbnz	r0, 8004128 <xQueueReceive+0xd6>
 8004114:	f04f 23e0 	mov.w	r3, #3758153728	; 0xe000e000
 8004118:	f04f 5280 	mov.w	r2, #268435456	; 0x10000000
 800411c:	f8c3 2d04 	str.w	r2, [r3, #3332]	; 0xd04
 8004120:	f3bf 8f4f 	dsb	sy
 8004124:	f3bf 8f6f 	isb	sy
 8004128:	2601      	movs	r6, #1
 800412a:	f001 f893 	bl	8005254 <vPortEnterCritical>
 800412e:	6ba5      	ldr	r5, [r4, #56]	; 0x38
 8004130:	2d00      	cmp	r5, #0
 8004132:	d0bc      	beq.n	80040ae <xQueueReceive+0x5c>
 8004134:	4639      	mov	r1, r7
 8004136:	4620      	mov	r0, r4
 8004138:	3d01      	subs	r5, #1
 800413a:	f7ff fd9a 	bl	8003c72 <prvCopyDataFromQueue>
 800413e:	63a5      	str	r5, [r4, #56]	; 0x38
 8004140:	6923      	ldr	r3, [r4, #16]
 8004142:	b173      	cbz	r3, 8004162 <xQueueReceive+0x110>
 8004144:	f104 0010 	add.w	r0, r4, #16
 8004148:	f000 fc3c 	bl	80049c4 <xTaskRemoveFromEventList>
 800414c:	b148      	cbz	r0, 8004162 <xQueueReceive+0x110>
 800414e:	f04f 23e0 	mov.w	r3, #3758153728	; 0xe000e000
 8004152:	f04f 5280 	mov.w	r2, #268435456	; 0x10000000
 8004156:	f8c3 2d04 	str.w	r2, [r3, #3332]	; 0xd04
 800415a:	f3bf 8f4f 	dsb	sy
 800415e:	f3bf 8f6f 	isb	sy
 8004162:	f001 f897 	bl	8005294 <vPortExitCritical>
 8004166:	2001      	movs	r0, #1
 8004168:	b004      	add	sp, #16
 800416a:	e8bd 81f0 	ldmia.w	sp!, {r4, r5, r6, r7, r8, pc}
 800416e:	4620      	mov	r0, r4
 8004170:	f7ff fd95 	bl	8003c9e <prvUnlockQueue>
 8004174:	f000 fb16 	bl	80047a4 <xTaskResumeAll>
 8004178:	e7d6      	b.n	8004128 <xQueueReceive+0xd6>
 800417a:	4620      	mov	r0, r4
 800417c:	f7ff fd8f 	bl	8003c9e <prvUnlockQueue>
 8004180:	f000 fb10 	bl	80047a4 <xTaskResumeAll>
 8004184:	4620      	mov	r0, r4
 8004186:	f7ff fd34 	bl	8003bf2 <prvIsQueueEmpty>
 800418a:	2800      	cmp	r0, #0
 800418c:	d0cc      	beq.n	8004128 <xQueueReceive+0xd6>
 800418e:	e792      	b.n	80040b6 <xQueueReceive+0x64>

08004190 <vQueueAddToRegistry>:
 8004190:	b510      	push	{r4, lr}
 8004192:	4a07      	ldr	r2, [pc, #28]	; (80041b0 <vQueueAddToRegistry+0x20>)
 8004194:	2300      	movs	r3, #0
 8004196:	f852 4033 	ldr.w	r4, [r2, r3, lsl #3]
 800419a:	b92c      	cbnz	r4, 80041a8 <vQueueAddToRegistry+0x18>
 800419c:	f842 1033 	str.w	r1, [r2, r3, lsl #3]
 80041a0:	eb02 03c3 	add.w	r3, r2, r3, lsl #3
 80041a4:	6058      	str	r0, [r3, #4]
 80041a6:	bd10      	pop	{r4, pc}
 80041a8:	3301      	adds	r3, #1
 80041aa:	2b08      	cmp	r3, #8
 80041ac:	d1f3      	bne.n	8004196 <vQueueAddToRegistry+0x6>
 80041ae:	e7fa      	b.n	80041a6 <vQueueAddToRegistry+0x16>
 80041b0:	20000b0c 	.word	0x20000b0c

080041b4 <vQueueWaitForMessageRestricted>:
 80041b4:	b570      	push	{r4, r5, r6, lr}
 80041b6:	4604      	mov	r4, r0
 80041b8:	460d      	mov	r5, r1
 80041ba:	4616      	mov	r6, r2
 80041bc:	f001 f84a 	bl	8005254 <vPortEnterCritical>
 80041c0:	f894 3044 	ldrb.w	r3, [r4, #68]	; 0x44
 80041c4:	2bff      	cmp	r3, #255	; 0xff
 80041c6:	bf04      	itt	eq
 80041c8:	2300      	moveq	r3, #0
 80041ca:	f884 3044 	strbeq.w	r3, [r4, #68]	; 0x44
 80041ce:	f894 3045 	ldrb.w	r3, [r4, #69]	; 0x45
 80041d2:	2bff      	cmp	r3, #255	; 0xff
 80041d4:	bf04      	itt	eq
 80041d6:	2300      	moveq	r3, #0
 80041d8:	f884 3045 	strbeq.w	r3, [r4, #69]	; 0x45
 80041dc:	f001 f85a 	bl	8005294 <vPortExitCritical>
 80041e0:	6ba3      	ldr	r3, [r4, #56]	; 0x38
 80041e2:	b92b      	cbnz	r3, 80041f0 <vQueueWaitForMessageRestricted+0x3c>
 80041e4:	4632      	mov	r2, r6
 80041e6:	4629      	mov	r1, r5
 80041e8:	f104 0024 	add.w	r0, r4, #36	; 0x24
 80041ec:	f000 fbcc 	bl	8004988 <vTaskPlaceOnEventListRestricted>
 80041f0:	4620      	mov	r0, r4
 80041f2:	e8bd 4070 	ldmia.w	sp!, {r4, r5, r6, lr}
 80041f6:	f7ff bd52 	b.w	8003c9e <prvUnlockQueue>
	...

080041fc <prvAddNewTaskToReadyList>:
 80041fc:	e92d 41f0 	stmdb	sp!, {r4, r5, r6, r7, r8, lr}
 8004200:	4604      	mov	r4, r0
 8004202:	f001 f827 	bl	8005254 <vPortEnterCritical>
 8004206:	4b30      	ldr	r3, [pc, #192]	; (80042c8 <prvAddNewTaskToReadyList+0xcc>)
 8004208:	4e30      	ldr	r6, [pc, #192]	; (80042cc <prvAddNewTaskToReadyList+0xd0>)
 800420a:	681a      	ldr	r2, [r3, #0]
 800420c:	4f30      	ldr	r7, [pc, #192]	; (80042d0 <prvAddNewTaskToReadyList+0xd4>)
 800420e:	3201      	adds	r2, #1
 8004210:	601a      	str	r2, [r3, #0]
 8004212:	6835      	ldr	r5, [r6, #0]
 8004214:	2d00      	cmp	r5, #0
 8004216:	d14b      	bne.n	80042b0 <prvAddNewTaskToReadyList+0xb4>
 8004218:	6034      	str	r4, [r6, #0]
 800421a:	681b      	ldr	r3, [r3, #0]
 800421c:	2b01      	cmp	r3, #1
 800421e:	d11f      	bne.n	8004260 <prvAddNewTaskToReadyList+0x64>
 8004220:	46b8      	mov	r8, r7
 8004222:	4640      	mov	r0, r8
 8004224:	3501      	adds	r5, #1
 8004226:	f7ff fca3 	bl	8003b70 <vListInitialise>
 800422a:	2d38      	cmp	r5, #56	; 0x38
 800422c:	f108 0814 	add.w	r8, r8, #20
 8004230:	d1f7      	bne.n	8004222 <prvAddNewTaskToReadyList+0x26>
 8004232:	f8df 80c4 	ldr.w	r8, [pc, #196]	; 80042f8 <prvAddNewTaskToReadyList+0xfc>
 8004236:	4d27      	ldr	r5, [pc, #156]	; (80042d4 <prvAddNewTaskToReadyList+0xd8>)
 8004238:	4640      	mov	r0, r8
 800423a:	f7ff fc99 	bl	8003b70 <vListInitialise>
 800423e:	4628      	mov	r0, r5
 8004240:	f7ff fc96 	bl	8003b70 <vListInitialise>
 8004244:	4824      	ldr	r0, [pc, #144]	; (80042d8 <prvAddNewTaskToReadyList+0xdc>)
 8004246:	f7ff fc93 	bl	8003b70 <vListInitialise>
 800424a:	4824      	ldr	r0, [pc, #144]	; (80042dc <prvAddNewTaskToReadyList+0xe0>)
 800424c:	f7ff fc90 	bl	8003b70 <vListInitialise>
 8004250:	4823      	ldr	r0, [pc, #140]	; (80042e0 <prvAddNewTaskToReadyList+0xe4>)
 8004252:	f7ff fc8d 	bl	8003b70 <vListInitialise>
 8004256:	4b23      	ldr	r3, [pc, #140]	; (80042e4 <prvAddNewTaskToReadyList+0xe8>)
 8004258:	f8c3 8000 	str.w	r8, [r3]
 800425c:	4b22      	ldr	r3, [pc, #136]	; (80042e8 <prvAddNewTaskToReadyList+0xec>)
 800425e:	601d      	str	r5, [r3, #0]
 8004260:	4a22      	ldr	r2, [pc, #136]	; (80042ec <prvAddNewTaskToReadyList+0xf0>)
 8004262:	6813      	ldr	r3, [r2, #0]
 8004264:	3301      	adds	r3, #1
 8004266:	6013      	str	r3, [r2, #0]
 8004268:	4a21      	ldr	r2, [pc, #132]	; (80042f0 <prvAddNewTaskToReadyList+0xf4>)
 800426a:	6463      	str	r3, [r4, #68]	; 0x44
 800426c:	6811      	ldr	r1, [r2, #0]
 800426e:	6ae3      	ldr	r3, [r4, #44]	; 0x2c
 8004270:	2014      	movs	r0, #20
 8004272:	428b      	cmp	r3, r1
 8004274:	fb00 7003 	mla	r0, r0, r3, r7
 8004278:	f104 0104 	add.w	r1, r4, #4
 800427c:	bf88      	it	hi
 800427e:	6013      	strhi	r3, [r2, #0]
 8004280:	f7ff fc84 	bl	8003b8c <vListInsertEnd>
 8004284:	f001 f806 	bl	8005294 <vPortExitCritical>
 8004288:	4b1a      	ldr	r3, [pc, #104]	; (80042f4 <prvAddNewTaskToReadyList+0xf8>)
 800428a:	681b      	ldr	r3, [r3, #0]
 800428c:	b173      	cbz	r3, 80042ac <prvAddNewTaskToReadyList+0xb0>
 800428e:	6833      	ldr	r3, [r6, #0]
 8004290:	6ada      	ldr	r2, [r3, #44]	; 0x2c
 8004292:	6ae3      	ldr	r3, [r4, #44]	; 0x2c
 8004294:	429a      	cmp	r2, r3
 8004296:	d209      	bcs.n	80042ac <prvAddNewTaskToReadyList+0xb0>
 8004298:	f04f 23e0 	mov.w	r3, #3758153728	; 0xe000e000
 800429c:	f04f 5280 	mov.w	r2, #268435456	; 0x10000000
 80042a0:	f8c3 2d04 	str.w	r2, [r3, #3332]	; 0xd04
 80042a4:	f3bf 8f4f 	dsb	sy
 80042a8:	f3bf 8f6f 	isb	sy
 80042ac:	e8bd 81f0 	ldmia.w	sp!, {r4, r5, r6, r7, r8, pc}
 80042b0:	4b10      	ldr	r3, [pc, #64]	; (80042f4 <prvAddNewTaskToReadyList+0xf8>)
 80042b2:	681b      	ldr	r3, [r3, #0]
 80042b4:	2b00      	cmp	r3, #0
 80042b6:	d1d3      	bne.n	8004260 <prvAddNewTaskToReadyList+0x64>
 80042b8:	6833      	ldr	r3, [r6, #0]
 80042ba:	6ada      	ldr	r2, [r3, #44]	; 0x2c
 80042bc:	6ae3      	ldr	r3, [r4, #44]	; 0x2c
 80042be:	429a      	cmp	r2, r3
 80042c0:	bf98      	it	ls
 80042c2:	6034      	strls	r4, [r6, #0]
 80042c4:	e7cc      	b.n	8004260 <prvAddNewTaskToReadyList+0x64>
 80042c6:	bf00      	nop
 80042c8:	20000fb8 	.word	0x20000fb8
 80042cc:	20000b4c 	.word	0x20000b4c
 80042d0:	20000b58 	.word	0x20000b58
 80042d4:	20000fe0 	.word	0x20000fe0
 80042d8:	20001000 	.word	0x20001000
 80042dc:	2000102c 	.word	0x2000102c
 80042e0:	20001018 	.word	0x20001018
 80042e4:	20000b50 	.word	0x20000b50
 80042e8:	20000b54 	.word	0x20000b54
 80042ec:	20000fc4 	.word	0x20000fc4
 80042f0:	20000fc8 	.word	0x20000fc8
 80042f4:	20001014 	.word	0x20001014
 80042f8:	20000fcc 	.word	0x20000fcc

080042fc <prvAddCurrentTaskToDelayedList>:
 80042fc:	b5f8      	push	{r3, r4, r5, r6, r7, lr}
 80042fe:	4b15      	ldr	r3, [pc, #84]	; (8004354 <prvAddCurrentTaskToDelayedList+0x58>)
 8004300:	4e15      	ldr	r6, [pc, #84]	; (8004358 <prvAddCurrentTaskToDelayedList+0x5c>)
 8004302:	681d      	ldr	r5, [r3, #0]
 8004304:	4604      	mov	r4, r0
 8004306:	6830      	ldr	r0, [r6, #0]
 8004308:	3004      	adds	r0, #4
 800430a:	460f      	mov	r7, r1
 800430c:	f7ff fc61 	bl	8003bd2 <uxListRemove>
 8004310:	1c63      	adds	r3, r4, #1
 8004312:	d107      	bne.n	8004324 <prvAddCurrentTaskToDelayedList+0x28>
 8004314:	b137      	cbz	r7, 8004324 <prvAddCurrentTaskToDelayedList+0x28>
 8004316:	6831      	ldr	r1, [r6, #0]
 8004318:	4810      	ldr	r0, [pc, #64]	; (800435c <prvAddCurrentTaskToDelayedList+0x60>)
 800431a:	e8bd 40f8 	ldmia.w	sp!, {r3, r4, r5, r6, r7, lr}
 800431e:	3104      	adds	r1, #4
 8004320:	f7ff bc34 	b.w	8003b8c <vListInsertEnd>
 8004324:	6833      	ldr	r3, [r6, #0]
 8004326:	192c      	adds	r4, r5, r4
 8004328:	605c      	str	r4, [r3, #4]
 800432a:	d307      	bcc.n	800433c <prvAddCurrentTaskToDelayedList+0x40>
 800432c:	4b0c      	ldr	r3, [pc, #48]	; (8004360 <prvAddCurrentTaskToDelayedList+0x64>)
 800432e:	6818      	ldr	r0, [r3, #0]
 8004330:	6831      	ldr	r1, [r6, #0]
 8004332:	e8bd 40f8 	ldmia.w	sp!, {r3, r4, r5, r6, r7, lr}
 8004336:	3104      	adds	r1, #4
 8004338:	f7ff bc34 	b.w	8003ba4 <vListInsert>
 800433c:	4b09      	ldr	r3, [pc, #36]	; (8004364 <prvAddCurrentTaskToDelayedList+0x68>)
 800433e:	6818      	ldr	r0, [r3, #0]
 8004340:	6831      	ldr	r1, [r6, #0]
 8004342:	3104      	adds	r1, #4
 8004344:	f7ff fc2e 	bl	8003ba4 <vListInsert>
 8004348:	4b07      	ldr	r3, [pc, #28]	; (8004368 <prvAddCurrentTaskToDelayedList+0x6c>)
 800434a:	681a      	ldr	r2, [r3, #0]
 800434c:	42a2      	cmp	r2, r4
 800434e:	bf88      	it	hi
 8004350:	601c      	strhi	r4, [r3, #0]
 8004352:	bdf8      	pop	{r3, r4, r5, r6, r7, pc}
 8004354:	20001040 	.word	0x20001040
 8004358:	20000b4c 	.word	0x20000b4c
 800435c:	20001018 	.word	0x20001018
 8004360:	20000b54 	.word	0x20000b54
 8004364:	20000b50 	.word	0x20000b50
 8004368:	20000ff4 	.word	0x20000ff4

0800436c <prvResetNextTaskUnblockTime>:
 800436c:	4a06      	ldr	r2, [pc, #24]	; (8004388 <prvResetNextTaskUnblockTime+0x1c>)
 800436e:	6813      	ldr	r3, [r2, #0]
 8004370:	6819      	ldr	r1, [r3, #0]
 8004372:	4b06      	ldr	r3, [pc, #24]	; (800438c <prvResetNextTaskUnblockTime+0x20>)
 8004374:	b919      	cbnz	r1, 800437e <prvResetNextTaskUnblockTime+0x12>
 8004376:	f04f 32ff 	mov.w	r2, #4294967295	; 0xffffffff
 800437a:	601a      	str	r2, [r3, #0]
 800437c:	4770      	bx	lr
 800437e:	6812      	ldr	r2, [r2, #0]
 8004380:	68d2      	ldr	r2, [r2, #12]
 8004382:	68d2      	ldr	r2, [r2, #12]
 8004384:	6852      	ldr	r2, [r2, #4]
 8004386:	e7f8      	b.n	800437a <prvResetNextTaskUnblockTime+0xe>
 8004388:	20000b50 	.word	0x20000b50
 800438c:	20000ff4 	.word	0x20000ff4

08004390 <prvDeleteTCB>:
 8004390:	b510      	push	{r4, lr}
 8004392:	4604      	mov	r4, r0
 8004394:	3054      	adds	r0, #84	; 0x54
 8004396:	f001 f9e5 	bl	8005764 <_reclaim_reent>
 800439a:	f894 30b9 	ldrb.w	r3, [r4, #185]	; 0xb9
 800439e:	b93b      	cbnz	r3, 80043b0 <prvDeleteTCB+0x20>
 80043a0:	6b20      	ldr	r0, [r4, #48]	; 0x30
 80043a2:	f001 f957 	bl	8005654 <vPortFree>
 80043a6:	4620      	mov	r0, r4
 80043a8:	e8bd 4010 	ldmia.w	sp!, {r4, lr}
 80043ac:	f001 b952 	b.w	8005654 <vPortFree>
 80043b0:	2b01      	cmp	r3, #1
 80043b2:	d0f8      	beq.n	80043a6 <prvDeleteTCB+0x16>
 80043b4:	2b02      	cmp	r3, #2
 80043b6:	d008      	beq.n	80043ca <prvDeleteTCB+0x3a>
 80043b8:	f04f 0350 	mov.w	r3, #80	; 0x50
 80043bc:	f383 8811 	msr	BASEPRI, r3
 80043c0:	f3bf 8f6f 	isb	sy
 80043c4:	f3bf 8f4f 	dsb	sy
 80043c8:	e7fe      	b.n	80043c8 <prvDeleteTCB+0x38>
 80043ca:	bd10      	pop	{r4, pc}

080043cc <prvIdleTask>:
 80043cc:	b580      	push	{r7, lr}
 80043ce:	4c14      	ldr	r4, [pc, #80]	; (8004420 <prvIdleTask+0x54>)
 80043d0:	4f14      	ldr	r7, [pc, #80]	; (8004424 <prvIdleTask+0x58>)
 80043d2:	4d15      	ldr	r5, [pc, #84]	; (8004428 <prvIdleTask+0x5c>)
 80043d4:	6823      	ldr	r3, [r4, #0]
 80043d6:	b983      	cbnz	r3, 80043fa <prvIdleTask+0x2e>
 80043d8:	4b14      	ldr	r3, [pc, #80]	; (800442c <prvIdleTask+0x60>)
 80043da:	681b      	ldr	r3, [r3, #0]
 80043dc:	2b01      	cmp	r3, #1
 80043de:	d909      	bls.n	80043f4 <prvIdleTask+0x28>
 80043e0:	f04f 23e0 	mov.w	r3, #3758153728	; 0xe000e000
 80043e4:	f04f 5280 	mov.w	r2, #268435456	; 0x10000000
 80043e8:	f8c3 2d04 	str.w	r2, [r3, #3332]	; 0xd04
 80043ec:	f3bf 8f4f 	dsb	sy
 80043f0:	f3bf 8f6f 	isb	sy
 80043f4:	f7fc f958 	bl	80006a8 <vApplicationIdleHook>
 80043f8:	e7eb      	b.n	80043d2 <prvIdleTask+0x6>
 80043fa:	f000 ff2b 	bl	8005254 <vPortEnterCritical>
 80043fe:	68fb      	ldr	r3, [r7, #12]
 8004400:	68de      	ldr	r6, [r3, #12]
 8004402:	1d30      	adds	r0, r6, #4
 8004404:	f7ff fbe5 	bl	8003bd2 <uxListRemove>
 8004408:	682b      	ldr	r3, [r5, #0]
 800440a:	3b01      	subs	r3, #1
 800440c:	602b      	str	r3, [r5, #0]
 800440e:	6823      	ldr	r3, [r4, #0]
 8004410:	3b01      	subs	r3, #1
 8004412:	6023      	str	r3, [r4, #0]
 8004414:	f000 ff3e 	bl	8005294 <vPortExitCritical>
 8004418:	4630      	mov	r0, r6
 800441a:	f7ff ffb9 	bl	8004390 <prvDeleteTCB>
 800441e:	e7d9      	b.n	80043d4 <prvIdleTask+0x8>
 8004420:	20000fbc 	.word	0x20000fbc
 8004424:	2000102c 	.word	0x2000102c
 8004428:	20000fb8 	.word	0x20000fb8
 800442c:	20000b58 	.word	0x20000b58

08004430 <prvInitialiseNewTask.constprop.0>:
 8004430:	e92d 47f0 	stmdb	sp!, {r4, r5, r6, r7, r8, r9, sl, lr}
 8004434:	e9dd 8409 	ldrd	r8, r4, [sp, #36]	; 0x24
 8004438:	ea4f 0982 	mov.w	r9, r2, lsl #2
 800443c:	464a      	mov	r2, r9
 800443e:	4606      	mov	r6, r0
 8004440:	460d      	mov	r5, r1
 8004442:	6b20      	ldr	r0, [r4, #48]	; 0x30
 8004444:	21a5      	movs	r1, #165	; 0xa5
 8004446:	461f      	mov	r7, r3
 8004448:	f001 f976 	bl	8005738 <memset>
 800444c:	6b22      	ldr	r2, [r4, #48]	; 0x30
 800444e:	f1a9 0904 	sub.w	r9, r9, #4
 8004452:	4491      	add	r9, r2
 8004454:	f029 0907 	bic.w	r9, r9, #7
 8004458:	2d00      	cmp	r5, #0
 800445a:	d040      	beq.n	80044de <prvInitialiseNewTask.constprop.0+0xae>
 800445c:	1e6b      	subs	r3, r5, #1
 800445e:	f104 0234 	add.w	r2, r4, #52	; 0x34
 8004462:	350f      	adds	r5, #15
 8004464:	f813 0f01 	ldrb.w	r0, [r3, #1]!
 8004468:	f802 0b01 	strb.w	r0, [r2], #1
 800446c:	b108      	cbz	r0, 8004472 <prvInitialiseNewTask.constprop.0+0x42>
 800446e:	42ab      	cmp	r3, r5
 8004470:	d1f8      	bne.n	8004464 <prvInitialiseNewTask.constprop.0+0x34>
 8004472:	2300      	movs	r3, #0
 8004474:	f884 3043 	strb.w	r3, [r4, #67]	; 0x43
 8004478:	9d08      	ldr	r5, [sp, #32]
 800447a:	2d37      	cmp	r5, #55	; 0x37
 800447c:	bf28      	it	cs
 800447e:	2537      	movcs	r5, #55	; 0x37
 8004480:	f04f 0a00 	mov.w	sl, #0
 8004484:	62e5      	str	r5, [r4, #44]	; 0x2c
 8004486:	64e5      	str	r5, [r4, #76]	; 0x4c
 8004488:	1d20      	adds	r0, r4, #4
 800448a:	f8c4 a050 	str.w	sl, [r4, #80]	; 0x50
 800448e:	f7ff fb7a 	bl	8003b86 <vListInitialiseItem>
 8004492:	f1c5 0538 	rsb	r5, r5, #56	; 0x38
 8004496:	f104 0018 	add.w	r0, r4, #24
 800449a:	f7ff fb74 	bl	8003b86 <vListInitialiseItem>
 800449e:	f8c4 a0b4 	str.w	sl, [r4, #180]	; 0xb4
 80044a2:	2260      	movs	r2, #96	; 0x60
 80044a4:	4651      	mov	r1, sl
 80044a6:	6124      	str	r4, [r4, #16]
 80044a8:	61a5      	str	r5, [r4, #24]
 80044aa:	6264      	str	r4, [r4, #36]	; 0x24
 80044ac:	f884 a0b8 	strb.w	sl, [r4, #184]	; 0xb8
 80044b0:	f104 0054 	add.w	r0, r4, #84	; 0x54
 80044b4:	f001 f940 	bl	8005738 <memset>
 80044b8:	4b0a      	ldr	r3, [pc, #40]	; (80044e4 <prvInitialiseNewTask.constprop.0+0xb4>)
 80044ba:	65a3      	str	r3, [r4, #88]	; 0x58
 80044bc:	4b0a      	ldr	r3, [pc, #40]	; (80044e8 <prvInitialiseNewTask.constprop.0+0xb8>)
 80044be:	65e3      	str	r3, [r4, #92]	; 0x5c
 80044c0:	4b0a      	ldr	r3, [pc, #40]	; (80044ec <prvInitialiseNewTask.constprop.0+0xbc>)
 80044c2:	6623      	str	r3, [r4, #96]	; 0x60
 80044c4:	463a      	mov	r2, r7
 80044c6:	4631      	mov	r1, r6
 80044c8:	4648      	mov	r0, r9
 80044ca:	f000 fe97 	bl	80051fc <pxPortInitialiseStack>
 80044ce:	6020      	str	r0, [r4, #0]
 80044d0:	f1b8 0f00 	cmp.w	r8, #0
 80044d4:	d001      	beq.n	80044da <prvInitialiseNewTask.constprop.0+0xaa>
 80044d6:	f8c8 4000 	str.w	r4, [r8]
 80044da:	e8bd 87f0 	ldmia.w	sp!, {r4, r5, r6, r7, r8, r9, sl, pc}
 80044de:	f884 5034 	strb.w	r5, [r4, #52]	; 0x34
 80044e2:	e7c9      	b.n	8004478 <prvInitialiseNewTask.constprop.0+0x48>
 80044e4:	08005a00 	.word	0x08005a00
 80044e8:	08005a20 	.word	0x08005a20
 80044ec:	080059e0 	.word	0x080059e0

080044f0 <xTaskCreateStatic>:
 80044f0:	b570      	push	{r4, r5, r6, lr}
 80044f2:	b086      	sub	sp, #24
 80044f4:	e9dd 540b 	ldrd	r5, r4, [sp, #44]	; 0x2c
 80044f8:	b945      	cbnz	r5, 800450c <xTaskCreateStatic+0x1c>
 80044fa:	f04f 0350 	mov.w	r3, #80	; 0x50
 80044fe:	f383 8811 	msr	BASEPRI, r3
 8004502:	f3bf 8f6f 	isb	sy
 8004506:	f3bf 8f4f 	dsb	sy
 800450a:	e7fe      	b.n	800450a <xTaskCreateStatic+0x1a>
 800450c:	b944      	cbnz	r4, 8004520 <xTaskCreateStatic+0x30>
 800450e:	f04f 0350 	mov.w	r3, #80	; 0x50
 8004512:	f383 8811 	msr	BASEPRI, r3
 8004516:	f3bf 8f6f 	isb	sy
 800451a:	f3bf 8f4f 	dsb	sy
 800451e:	e7fe      	b.n	800451e <xTaskCreateStatic+0x2e>
 8004520:	26bc      	movs	r6, #188	; 0xbc
 8004522:	9605      	str	r6, [sp, #20]
 8004524:	9e05      	ldr	r6, [sp, #20]
 8004526:	2ebc      	cmp	r6, #188	; 0xbc
 8004528:	d008      	beq.n	800453c <xTaskCreateStatic+0x4c>
 800452a:	f04f 0350 	mov.w	r3, #80	; 0x50
 800452e:	f383 8811 	msr	BASEPRI, r3
 8004532:	f3bf 8f6f 	isb	sy
 8004536:	f3bf 8f4f 	dsb	sy
 800453a:	e7fe      	b.n	800453a <xTaskCreateStatic+0x4a>
 800453c:	6325      	str	r5, [r4, #48]	; 0x30
 800453e:	2502      	movs	r5, #2
 8004540:	f884 50b9 	strb.w	r5, [r4, #185]	; 0xb9
 8004544:	ad04      	add	r5, sp, #16
 8004546:	9501      	str	r5, [sp, #4]
 8004548:	9d0a      	ldr	r5, [sp, #40]	; 0x28
 800454a:	9402      	str	r4, [sp, #8]
 800454c:	9500      	str	r5, [sp, #0]
 800454e:	9e05      	ldr	r6, [sp, #20]
 8004550:	f7ff ff6e 	bl	8004430 <prvInitialiseNewTask.constprop.0>
 8004554:	4620      	mov	r0, r4
 8004556:	f7ff fe51 	bl	80041fc <prvAddNewTaskToReadyList>
 800455a:	9804      	ldr	r0, [sp, #16]
 800455c:	b006      	add	sp, #24
 800455e:	bd70      	pop	{r4, r5, r6, pc}

08004560 <xTaskCreate>:
 8004560:	e92d 43f0 	stmdb	sp!, {r4, r5, r6, r7, r8, r9, lr}
 8004564:	4607      	mov	r7, r0
 8004566:	b085      	sub	sp, #20
 8004568:	0090      	lsls	r0, r2, #2
 800456a:	4688      	mov	r8, r1
 800456c:	4616      	mov	r6, r2
 800456e:	4699      	mov	r9, r3
 8004570:	f000 ffd8 	bl	8005524 <pvPortMalloc>
 8004574:	4605      	mov	r5, r0
 8004576:	b1e8      	cbz	r0, 80045b4 <xTaskCreate+0x54>
 8004578:	20bc      	movs	r0, #188	; 0xbc
 800457a:	f000 ffd3 	bl	8005524 <pvPortMalloc>
 800457e:	4604      	mov	r4, r0
 8004580:	b1a8      	cbz	r0, 80045ae <xTaskCreate+0x4e>
 8004582:	2300      	movs	r3, #0
 8004584:	f880 30b9 	strb.w	r3, [r0, #185]	; 0xb9
 8004588:	9b0d      	ldr	r3, [sp, #52]	; 0x34
 800458a:	6305      	str	r5, [r0, #48]	; 0x30
 800458c:	9301      	str	r3, [sp, #4]
 800458e:	9b0c      	ldr	r3, [sp, #48]	; 0x30
 8004590:	9002      	str	r0, [sp, #8]
 8004592:	9300      	str	r3, [sp, #0]
 8004594:	4632      	mov	r2, r6
 8004596:	464b      	mov	r3, r9
 8004598:	4641      	mov	r1, r8
 800459a:	4638      	mov	r0, r7
 800459c:	f7ff ff48 	bl	8004430 <prvInitialiseNewTask.constprop.0>
 80045a0:	4620      	mov	r0, r4
 80045a2:	f7ff fe2b 	bl	80041fc <prvAddNewTaskToReadyList>
 80045a6:	2001      	movs	r0, #1
 80045a8:	b005      	add	sp, #20
 80045aa:	e8bd 83f0 	ldmia.w	sp!, {r4, r5, r6, r7, r8, r9, pc}
 80045ae:	4628      	mov	r0, r5
 80045b0:	f001 f850 	bl	8005654 <vPortFree>
 80045b4:	f04f 30ff 	mov.w	r0, #4294967295	; 0xffffffff
 80045b8:	e7f6      	b.n	80045a8 <xTaskCreate+0x48>
	...

080045bc <vTaskStartScheduler>:
 80045bc:	b510      	push	{r4, lr}
 80045be:	b088      	sub	sp, #32
 80045c0:	2400      	movs	r4, #0
 80045c2:	aa07      	add	r2, sp, #28
 80045c4:	a906      	add	r1, sp, #24
 80045c6:	a805      	add	r0, sp, #20
 80045c8:	e9cd 4405 	strd	r4, r4, [sp, #20]
 80045cc:	f7ff fab8 	bl	8003b40 <vApplicationGetIdleTaskMemory>
 80045d0:	9b05      	ldr	r3, [sp, #20]
 80045d2:	9302      	str	r3, [sp, #8]
 80045d4:	9b06      	ldr	r3, [sp, #24]
 80045d6:	9a07      	ldr	r2, [sp, #28]
 80045d8:	4919      	ldr	r1, [pc, #100]	; (8004640 <vTaskStartScheduler+0x84>)
 80045da:	481a      	ldr	r0, [pc, #104]	; (8004644 <vTaskStartScheduler+0x88>)
 80045dc:	e9cd 4300 	strd	r4, r3, [sp]
 80045e0:	4623      	mov	r3, r4
 80045e2:	f7ff ff85 	bl	80044f0 <xTaskCreateStatic>
 80045e6:	b340      	cbz	r0, 800463a <vTaskStartScheduler+0x7e>
 80045e8:	f000 fc30 	bl	8004e4c <xTimerCreateTimerTask>
 80045ec:	2801      	cmp	r0, #1
 80045ee:	d119      	bne.n	8004624 <vTaskStartScheduler+0x68>
 80045f0:	f04f 0350 	mov.w	r3, #80	; 0x50
 80045f4:	f383 8811 	msr	BASEPRI, r3
 80045f8:	f3bf 8f6f 	isb	sy
 80045fc:	f3bf 8f4f 	dsb	sy
 8004600:	4b11      	ldr	r3, [pc, #68]	; (8004648 <vTaskStartScheduler+0x8c>)
 8004602:	4a12      	ldr	r2, [pc, #72]	; (800464c <vTaskStartScheduler+0x90>)
 8004604:	681b      	ldr	r3, [r3, #0]
 8004606:	3354      	adds	r3, #84	; 0x54
 8004608:	6013      	str	r3, [r2, #0]
 800460a:	4b11      	ldr	r3, [pc, #68]	; (8004650 <vTaskStartScheduler+0x94>)
 800460c:	f04f 32ff 	mov.w	r2, #4294967295	; 0xffffffff
 8004610:	601a      	str	r2, [r3, #0]
 8004612:	4b10      	ldr	r3, [pc, #64]	; (8004654 <vTaskStartScheduler+0x98>)
 8004614:	6018      	str	r0, [r3, #0]
 8004616:	4b10      	ldr	r3, [pc, #64]	; (8004658 <vTaskStartScheduler+0x9c>)
 8004618:	601c      	str	r4, [r3, #0]
 800461a:	b008      	add	sp, #32
 800461c:	e8bd 4010 	ldmia.w	sp!, {r4, lr}
 8004620:	f000 bea8 	b.w	8005374 <xPortStartScheduler>
 8004624:	3001      	adds	r0, #1
 8004626:	d108      	bne.n	800463a <vTaskStartScheduler+0x7e>
 8004628:	f04f 0350 	mov.w	r3, #80	; 0x50
 800462c:	f383 8811 	msr	BASEPRI, r3
 8004630:	f3bf 8f6f 	isb	sy
 8004634:	f3bf 8f4f 	dsb	sy
 8004638:	e7fe      	b.n	8004638 <vTaskStartScheduler+0x7c>
 800463a:	b008      	add	sp, #32
 800463c:	bd10      	pop	{r4, pc}
 800463e:	bf00      	nop
 8004640:	080059cc 	.word	0x080059cc
 8004644:	080043cd 	.word	0x080043cd
 8004648:	20000b4c 	.word	0x20000b4c
 800464c:	20000010 	.word	0x20000010
 8004650:	20000ff4 	.word	0x20000ff4
 8004654:	20001014 	.word	0x20001014
 8004658:	20001040 	.word	0x20001040

0800465c <vTaskSuspendAll>:
 800465c:	4a02      	ldr	r2, [pc, #8]	; (8004668 <vTaskSuspendAll+0xc>)
 800465e:	6813      	ldr	r3, [r2, #0]
 8004660:	3301      	adds	r3, #1
 8004662:	6013      	str	r3, [r2, #0]
 8004664:	4770      	bx	lr
 8004666:	bf00      	nop
 8004668:	20000fc0 	.word	0x20000fc0

0800466c <xTaskGetTickCount>:
 800466c:	4b01      	ldr	r3, [pc, #4]	; (8004674 <xTaskGetTickCount+0x8>)
 800466e:	6818      	ldr	r0, [r3, #0]
 8004670:	4770      	bx	lr
 8004672:	bf00      	nop
 8004674:	20001040 	.word	0x20001040

08004678 <xTaskIncrementTick>:
 8004678:	4b3f      	ldr	r3, [pc, #252]	; (8004778 <xTaskIncrementTick+0x100>)
 800467a:	681b      	ldr	r3, [r3, #0]
 800467c:	e92d 4ff7 	stmdb	sp!, {r0, r1, r2, r4, r5, r6, r7, r8, r9, sl, fp, lr}
 8004680:	2b00      	cmp	r3, #0
 8004682:	d173      	bne.n	800476c <xTaskIncrementTick+0xf4>
 8004684:	4b3d      	ldr	r3, [pc, #244]	; (800477c <xTaskIncrementTick+0x104>)
 8004686:	681d      	ldr	r5, [r3, #0]
 8004688:	3501      	adds	r5, #1
 800468a:	601d      	str	r5, [r3, #0]
 800468c:	b9bd      	cbnz	r5, 80046be <xTaskIncrementTick+0x46>
 800468e:	4b3c      	ldr	r3, [pc, #240]	; (8004780 <xTaskIncrementTick+0x108>)
 8004690:	681a      	ldr	r2, [r3, #0]
 8004692:	6812      	ldr	r2, [r2, #0]
 8004694:	b142      	cbz	r2, 80046a8 <xTaskIncrementTick+0x30>
 8004696:	f04f 0350 	mov.w	r3, #80	; 0x50
 800469a:	f383 8811 	msr	BASEPRI, r3
 800469e:	f3bf 8f6f 	isb	sy
 80046a2:	f3bf 8f4f 	dsb	sy
 80046a6:	e7fe      	b.n	80046a6 <xTaskIncrementTick+0x2e>
 80046a8:	4a36      	ldr	r2, [pc, #216]	; (8004784 <xTaskIncrementTick+0x10c>)
 80046aa:	6819      	ldr	r1, [r3, #0]
 80046ac:	6810      	ldr	r0, [r2, #0]
 80046ae:	6018      	str	r0, [r3, #0]
 80046b0:	6011      	str	r1, [r2, #0]
 80046b2:	4a35      	ldr	r2, [pc, #212]	; (8004788 <xTaskIncrementTick+0x110>)
 80046b4:	6813      	ldr	r3, [r2, #0]
 80046b6:	3301      	adds	r3, #1
 80046b8:	6013      	str	r3, [r2, #0]
 80046ba:	f7ff fe57 	bl	800436c <prvResetNextTaskUnblockTime>
 80046be:	4e33      	ldr	r6, [pc, #204]	; (800478c <xTaskIncrementTick+0x114>)
 80046c0:	4f33      	ldr	r7, [pc, #204]	; (8004790 <xTaskIncrementTick+0x118>)
 80046c2:	6833      	ldr	r3, [r6, #0]
 80046c4:	f8df 80d4 	ldr.w	r8, [pc, #212]	; 800479c <xTaskIncrementTick+0x124>
 80046c8:	429d      	cmp	r5, r3
 80046ca:	f04f 0400 	mov.w	r4, #0
 80046ce:	d211      	bcs.n	80046f4 <xTaskIncrementTick+0x7c>
 80046d0:	f8d8 3000 	ldr.w	r3, [r8]
 80046d4:	6adb      	ldr	r3, [r3, #44]	; 0x2c
 80046d6:	2214      	movs	r2, #20
 80046d8:	4353      	muls	r3, r2
 80046da:	58fb      	ldr	r3, [r7, r3]
 80046dc:	2b02      	cmp	r3, #2
 80046de:	4b2d      	ldr	r3, [pc, #180]	; (8004794 <xTaskIncrementTick+0x11c>)
 80046e0:	681b      	ldr	r3, [r3, #0]
 80046e2:	bf28      	it	cs
 80046e4:	2401      	movcs	r4, #1
 80046e6:	2b00      	cmp	r3, #0
 80046e8:	bf18      	it	ne
 80046ea:	2401      	movne	r4, #1
 80046ec:	4620      	mov	r0, r4
 80046ee:	b003      	add	sp, #12
 80046f0:	e8bd 8ff0 	ldmia.w	sp!, {r4, r5, r6, r7, r8, r9, sl, fp, pc}
 80046f4:	f8df 9088 	ldr.w	r9, [pc, #136]	; 8004780 <xTaskIncrementTick+0x108>
 80046f8:	f8df a0a4 	ldr.w	sl, [pc, #164]	; 80047a0 <xTaskIncrementTick+0x128>
 80046fc:	f8d9 3000 	ldr.w	r3, [r9]
 8004700:	681b      	ldr	r3, [r3, #0]
 8004702:	b91b      	cbnz	r3, 800470c <xTaskIncrementTick+0x94>
 8004704:	f04f 33ff 	mov.w	r3, #4294967295	; 0xffffffff
 8004708:	6033      	str	r3, [r6, #0]
 800470a:	e7e1      	b.n	80046d0 <xTaskIncrementTick+0x58>
 800470c:	f8d9 3000 	ldr.w	r3, [r9]
 8004710:	68db      	ldr	r3, [r3, #12]
 8004712:	f8d3 b00c 	ldr.w	fp, [r3, #12]
 8004716:	f8db 2004 	ldr.w	r2, [fp, #4]
 800471a:	4295      	cmp	r5, r2
 800471c:	d201      	bcs.n	8004722 <xTaskIncrementTick+0xaa>
 800471e:	6032      	str	r2, [r6, #0]
 8004720:	e7d6      	b.n	80046d0 <xTaskIncrementTick+0x58>
 8004722:	f10b 0104 	add.w	r1, fp, #4
 8004726:	4608      	mov	r0, r1
 8004728:	9101      	str	r1, [sp, #4]
 800472a:	f7ff fa52 	bl	8003bd2 <uxListRemove>
 800472e:	f8db 2028 	ldr.w	r2, [fp, #40]	; 0x28
 8004732:	9901      	ldr	r1, [sp, #4]
 8004734:	b122      	cbz	r2, 8004740 <xTaskIncrementTick+0xc8>
 8004736:	f10b 0018 	add.w	r0, fp, #24
 800473a:	f7ff fa4a 	bl	8003bd2 <uxListRemove>
 800473e:	9901      	ldr	r1, [sp, #4]
 8004740:	f8db 002c 	ldr.w	r0, [fp, #44]	; 0x2c
 8004744:	f8da 2000 	ldr.w	r2, [sl]
 8004748:	2314      	movs	r3, #20
 800474a:	4290      	cmp	r0, r2
 800474c:	bf88      	it	hi
 800474e:	f8ca 0000 	strhi.w	r0, [sl]
 8004752:	fb03 7000 	mla	r0, r3, r0, r7
 8004756:	f7ff fa19 	bl	8003b8c <vListInsertEnd>
 800475a:	f8d8 1000 	ldr.w	r1, [r8]
 800475e:	f8db 202c 	ldr.w	r2, [fp, #44]	; 0x2c
 8004762:	6acb      	ldr	r3, [r1, #44]	; 0x2c
 8004764:	429a      	cmp	r2, r3
 8004766:	bf28      	it	cs
 8004768:	2401      	movcs	r4, #1
 800476a:	e7c7      	b.n	80046fc <xTaskIncrementTick+0x84>
 800476c:	4a0a      	ldr	r2, [pc, #40]	; (8004798 <xTaskIncrementTick+0x120>)
 800476e:	6813      	ldr	r3, [r2, #0]
 8004770:	3301      	adds	r3, #1
 8004772:	6013      	str	r3, [r2, #0]
 8004774:	2400      	movs	r4, #0
 8004776:	e7b9      	b.n	80046ec <xTaskIncrementTick+0x74>
 8004778:	20000fc0 	.word	0x20000fc0
 800477c:	20001040 	.word	0x20001040
 8004780:	20000b50 	.word	0x20000b50
 8004784:	20000b54 	.word	0x20000b54
 8004788:	20000ff8 	.word	0x20000ff8
 800478c:	20000ff4 	.word	0x20000ff4
 8004790:	20000b58 	.word	0x20000b58
 8004794:	20001044 	.word	0x20001044
 8004798:	20000ffc 	.word	0x20000ffc
 800479c:	20000b4c 	.word	0x20000b4c
 80047a0:	20000fc8 	.word	0x20000fc8

080047a4 <xTaskResumeAll>:
 80047a4:	b5f7      	push	{r0, r1, r2, r4, r5, r6, r7, lr}
 80047a6:	4c31      	ldr	r4, [pc, #196]	; (800486c <xTaskResumeAll+0xc8>)
 80047a8:	6823      	ldr	r3, [r4, #0]
 80047aa:	b943      	cbnz	r3, 80047be <xTaskResumeAll+0x1a>
 80047ac:	f04f 0350 	mov.w	r3, #80	; 0x50
 80047b0:	f383 8811 	msr	BASEPRI, r3
 80047b4:	f3bf 8f6f 	isb	sy
 80047b8:	f3bf 8f4f 	dsb	sy
 80047bc:	e7fe      	b.n	80047bc <xTaskResumeAll+0x18>
 80047be:	f000 fd49 	bl	8005254 <vPortEnterCritical>
 80047c2:	6823      	ldr	r3, [r4, #0]
 80047c4:	3b01      	subs	r3, #1
 80047c6:	6023      	str	r3, [r4, #0]
 80047c8:	6824      	ldr	r4, [r4, #0]
 80047ca:	b12c      	cbz	r4, 80047d8 <xTaskResumeAll+0x34>
 80047cc:	2400      	movs	r4, #0
 80047ce:	f000 fd61 	bl	8005294 <vPortExitCritical>
 80047d2:	4620      	mov	r0, r4
 80047d4:	b003      	add	sp, #12
 80047d6:	bdf0      	pop	{r4, r5, r6, r7, pc}
 80047d8:	4b25      	ldr	r3, [pc, #148]	; (8004870 <xTaskResumeAll+0xcc>)
 80047da:	681b      	ldr	r3, [r3, #0]
 80047dc:	2b00      	cmp	r3, #0
 80047de:	d0f5      	beq.n	80047cc <xTaskResumeAll+0x28>
 80047e0:	4d24      	ldr	r5, [pc, #144]	; (8004874 <xTaskResumeAll+0xd0>)
 80047e2:	4e25      	ldr	r6, [pc, #148]	; (8004878 <xTaskResumeAll+0xd4>)
 80047e4:	4f25      	ldr	r7, [pc, #148]	; (800487c <xTaskResumeAll+0xd8>)
 80047e6:	e01e      	b.n	8004826 <xTaskResumeAll+0x82>
 80047e8:	68eb      	ldr	r3, [r5, #12]
 80047ea:	68dc      	ldr	r4, [r3, #12]
 80047ec:	f104 0018 	add.w	r0, r4, #24
 80047f0:	f7ff f9ef 	bl	8003bd2 <uxListRemove>
 80047f4:	1d21      	adds	r1, r4, #4
 80047f6:	4608      	mov	r0, r1
 80047f8:	9101      	str	r1, [sp, #4]
 80047fa:	f7ff f9ea 	bl	8003bd2 <uxListRemove>
 80047fe:	6ae3      	ldr	r3, [r4, #44]	; 0x2c
 8004800:	6832      	ldr	r2, [r6, #0]
 8004802:	9901      	ldr	r1, [sp, #4]
 8004804:	2014      	movs	r0, #20
 8004806:	4293      	cmp	r3, r2
 8004808:	fb00 7003 	mla	r0, r0, r3, r7
 800480c:	bf88      	it	hi
 800480e:	6033      	strhi	r3, [r6, #0]
 8004810:	f7ff f9bc 	bl	8003b8c <vListInsertEnd>
 8004814:	4b1a      	ldr	r3, [pc, #104]	; (8004880 <xTaskResumeAll+0xdc>)
 8004816:	6ae2      	ldr	r2, [r4, #44]	; 0x2c
 8004818:	681b      	ldr	r3, [r3, #0]
 800481a:	6adb      	ldr	r3, [r3, #44]	; 0x2c
 800481c:	429a      	cmp	r2, r3
 800481e:	d302      	bcc.n	8004826 <xTaskResumeAll+0x82>
 8004820:	4b18      	ldr	r3, [pc, #96]	; (8004884 <xTaskResumeAll+0xe0>)
 8004822:	2201      	movs	r2, #1
 8004824:	601a      	str	r2, [r3, #0]
 8004826:	682b      	ldr	r3, [r5, #0]
 8004828:	2b00      	cmp	r3, #0
 800482a:	d1dd      	bne.n	80047e8 <xTaskResumeAll+0x44>
 800482c:	b10c      	cbz	r4, 8004832 <xTaskResumeAll+0x8e>
 800482e:	f7ff fd9d 	bl	800436c <prvResetNextTaskUnblockTime>
 8004832:	4d15      	ldr	r5, [pc, #84]	; (8004888 <xTaskResumeAll+0xe4>)
 8004834:	682c      	ldr	r4, [r5, #0]
 8004836:	b144      	cbz	r4, 800484a <xTaskResumeAll+0xa6>
 8004838:	4e12      	ldr	r6, [pc, #72]	; (8004884 <xTaskResumeAll+0xe0>)
 800483a:	2701      	movs	r7, #1
 800483c:	f7ff ff1c 	bl	8004678 <xTaskIncrementTick>
 8004840:	b100      	cbz	r0, 8004844 <xTaskResumeAll+0xa0>
 8004842:	6037      	str	r7, [r6, #0]
 8004844:	3c01      	subs	r4, #1
 8004846:	d1f9      	bne.n	800483c <xTaskResumeAll+0x98>
 8004848:	602c      	str	r4, [r5, #0]
 800484a:	4b0e      	ldr	r3, [pc, #56]	; (8004884 <xTaskResumeAll+0xe0>)
 800484c:	681b      	ldr	r3, [r3, #0]
 800484e:	2b00      	cmp	r3, #0
 8004850:	d0bc      	beq.n	80047cc <xTaskResumeAll+0x28>
 8004852:	f04f 23e0 	mov.w	r3, #3758153728	; 0xe000e000
 8004856:	f04f 5280 	mov.w	r2, #268435456	; 0x10000000
 800485a:	f8c3 2d04 	str.w	r2, [r3, #3332]	; 0xd04
 800485e:	f3bf 8f4f 	dsb	sy
 8004862:	f3bf 8f6f 	isb	sy
 8004866:	2401      	movs	r4, #1
 8004868:	e7b1      	b.n	80047ce <xTaskResumeAll+0x2a>
 800486a:	bf00      	nop
 800486c:	20000fc0 	.word	0x20000fc0
 8004870:	20000fb8 	.word	0x20000fb8
 8004874:	20001000 	.word	0x20001000
 8004878:	20000fc8 	.word	0x20000fc8
 800487c:	20000b58 	.word	0x20000b58
 8004880:	20000b4c 	.word	0x20000b4c
 8004884:	20001044 	.word	0x20001044
 8004888:	20000ffc 	.word	0x20000ffc

0800488c <vTaskDelay>:
 800488c:	b508      	push	{r3, lr}
 800488e:	b950      	cbnz	r0, 80048a6 <vTaskDelay+0x1a>
 8004890:	f04f 23e0 	mov.w	r3, #3758153728	; 0xe000e000
 8004894:	f04f 5280 	mov.w	r2, #268435456	; 0x10000000
 8004898:	f8c3 2d04 	str.w	r2, [r3, #3332]	; 0xd04
 800489c:	f3bf 8f4f 	dsb	sy
 80048a0:	f3bf 8f6f 	isb	sy
 80048a4:	bd08      	pop	{r3, pc}
 80048a6:	4b0a      	ldr	r3, [pc, #40]	; (80048d0 <vTaskDelay+0x44>)
 80048a8:	6819      	ldr	r1, [r3, #0]
 80048aa:	b141      	cbz	r1, 80048be <vTaskDelay+0x32>
 80048ac:	f04f 0350 	mov.w	r3, #80	; 0x50
 80048b0:	f383 8811 	msr	BASEPRI, r3
 80048b4:	f3bf 8f6f 	isb	sy
 80048b8:	f3bf 8f4f 	dsb	sy
 80048bc:	e7fe      	b.n	80048bc <vTaskDelay+0x30>
 80048be:	f7ff fecd 	bl	800465c <vTaskSuspendAll>
 80048c2:	f7ff fd1b 	bl	80042fc <prvAddCurrentTaskToDelayedList>
 80048c6:	f7ff ff6d 	bl	80047a4 <xTaskResumeAll>
 80048ca:	2800      	cmp	r0, #0
 80048cc:	d0e0      	beq.n	8004890 <vTaskDelay+0x4>
 80048ce:	e7e9      	b.n	80048a4 <vTaskDelay+0x18>
 80048d0:	20000fc0 	.word	0x20000fc0

080048d4 <vTaskSwitchContext>:
 80048d4:	4b19      	ldr	r3, [pc, #100]	; (800493c <vTaskSwitchContext+0x68>)
 80048d6:	681a      	ldr	r2, [r3, #0]
 80048d8:	4b19      	ldr	r3, [pc, #100]	; (8004940 <vTaskSwitchContext+0x6c>)
 80048da:	b570      	push	{r4, r5, r6, lr}
 80048dc:	b112      	cbz	r2, 80048e4 <vTaskSwitchContext+0x10>
 80048de:	2201      	movs	r2, #1
 80048e0:	601a      	str	r2, [r3, #0]
 80048e2:	bd70      	pop	{r4, r5, r6, pc}
 80048e4:	4d17      	ldr	r5, [pc, #92]	; (8004944 <vTaskSwitchContext+0x70>)
 80048e6:	601a      	str	r2, [r3, #0]
 80048e8:	682a      	ldr	r2, [r5, #0]
 80048ea:	4917      	ldr	r1, [pc, #92]	; (8004948 <vTaskSwitchContext+0x74>)
 80048ec:	2614      	movs	r6, #20
 80048ee:	fb06 f302 	mul.w	r3, r6, r2
 80048f2:	18c8      	adds	r0, r1, r3
 80048f4:	58cc      	ldr	r4, [r1, r3]
 80048f6:	b1ac      	cbz	r4, 8004924 <vTaskSwitchContext+0x50>
 80048f8:	6844      	ldr	r4, [r0, #4]
 80048fa:	3308      	adds	r3, #8
 80048fc:	6864      	ldr	r4, [r4, #4]
 80048fe:	6044      	str	r4, [r0, #4]
 8004900:	440b      	add	r3, r1
 8004902:	429c      	cmp	r4, r3
 8004904:	bf04      	itt	eq
 8004906:	6863      	ldreq	r3, [r4, #4]
 8004908:	6043      	streq	r3, [r0, #4]
 800490a:	2314      	movs	r3, #20
 800490c:	fb03 1102 	mla	r1, r3, r2, r1
 8004910:	684b      	ldr	r3, [r1, #4]
 8004912:	68d9      	ldr	r1, [r3, #12]
 8004914:	4b0d      	ldr	r3, [pc, #52]	; (800494c <vTaskSwitchContext+0x78>)
 8004916:	6019      	str	r1, [r3, #0]
 8004918:	602a      	str	r2, [r5, #0]
 800491a:	681b      	ldr	r3, [r3, #0]
 800491c:	4a0c      	ldr	r2, [pc, #48]	; (8004950 <vTaskSwitchContext+0x7c>)
 800491e:	3354      	adds	r3, #84	; 0x54
 8004920:	6013      	str	r3, [r2, #0]
 8004922:	e7de      	b.n	80048e2 <vTaskSwitchContext+0xe>
 8004924:	b942      	cbnz	r2, 8004938 <vTaskSwitchContext+0x64>
 8004926:	f04f 0350 	mov.w	r3, #80	; 0x50
 800492a:	f383 8811 	msr	BASEPRI, r3
 800492e:	f3bf 8f6f 	isb	sy
 8004932:	f3bf 8f4f 	dsb	sy
 8004936:	e7fe      	b.n	8004936 <vTaskSwitchContext+0x62>
 8004938:	3a01      	subs	r2, #1
 800493a:	e7d8      	b.n	80048ee <vTaskSwitchContext+0x1a>
 800493c:	20000fc0 	.word	0x20000fc0
 8004940:	20001044 	.word	0x20001044
 8004944:	20000fc8 	.word	0x20000fc8
 8004948:	20000b58 	.word	0x20000b58
 800494c:	20000b4c 	.word	0x20000b4c
 8004950:	20000010 	.word	0x20000010

08004954 <vTaskPlaceOnEventList>:
 8004954:	b510      	push	{r4, lr}
 8004956:	460c      	mov	r4, r1
 8004958:	b940      	cbnz	r0, 800496c <vTaskPlaceOnEventList+0x18>
 800495a:	f04f 0350 	mov.w	r3, #80	; 0x50
 800495e:	f383 8811 	msr	BASEPRI, r3
 8004962:	f3bf 8f6f 	isb	sy
 8004966:	f3bf 8f4f 	dsb	sy
 800496a:	e7fe      	b.n	800496a <vTaskPlaceOnEventList+0x16>
 800496c:	4b05      	ldr	r3, [pc, #20]	; (8004984 <vTaskPlaceOnEventList+0x30>)
 800496e:	6819      	ldr	r1, [r3, #0]
 8004970:	3118      	adds	r1, #24
 8004972:	f7ff f917 	bl	8003ba4 <vListInsert>
 8004976:	4620      	mov	r0, r4
 8004978:	2101      	movs	r1, #1
 800497a:	e8bd 4010 	ldmia.w	sp!, {r4, lr}
 800497e:	f7ff bcbd 	b.w	80042fc <prvAddCurrentTaskToDelayedList>
 8004982:	bf00      	nop
 8004984:	20000b4c 	.word	0x20000b4c

08004988 <vTaskPlaceOnEventListRestricted>:
 8004988:	b538      	push	{r3, r4, r5, lr}
 800498a:	460d      	mov	r5, r1
 800498c:	4614      	mov	r4, r2
 800498e:	b940      	cbnz	r0, 80049a2 <vTaskPlaceOnEventListRestricted+0x1a>
 8004990:	f04f 0350 	mov.w	r3, #80	; 0x50
 8004994:	f383 8811 	msr	BASEPRI, r3
 8004998:	f3bf 8f6f 	isb	sy
 800499c:	f3bf 8f4f 	dsb	sy
 80049a0:	e7fe      	b.n	80049a0 <vTaskPlaceOnEventListRestricted+0x18>
 80049a2:	4b07      	ldr	r3, [pc, #28]	; (80049c0 <vTaskPlaceOnEventListRestricted+0x38>)
 80049a4:	6819      	ldr	r1, [r3, #0]
 80049a6:	3118      	adds	r1, #24
 80049a8:	f7ff f8f0 	bl	8003b8c <vListInsertEnd>
 80049ac:	2c00      	cmp	r4, #0
 80049ae:	4621      	mov	r1, r4
 80049b0:	bf0c      	ite	eq
 80049b2:	4628      	moveq	r0, r5
 80049b4:	f04f 30ff 	movne.w	r0, #4294967295	; 0xffffffff
 80049b8:	e8bd 4038 	ldmia.w	sp!, {r3, r4, r5, lr}
 80049bc:	f7ff bc9e 	b.w	80042fc <prvAddCurrentTaskToDelayedList>
 80049c0:	20000b4c 	.word	0x20000b4c

080049c4 <xTaskRemoveFromEventList>:
 80049c4:	68c3      	ldr	r3, [r0, #12]
 80049c6:	b513      	push	{r0, r1, r4, lr}
 80049c8:	68dc      	ldr	r4, [r3, #12]
 80049ca:	b944      	cbnz	r4, 80049de <xTaskRemoveFromEventList+0x1a>
 80049cc:	f04f 0350 	mov.w	r3, #80	; 0x50
 80049d0:	f383 8811 	msr	BASEPRI, r3
 80049d4:	f3bf 8f6f 	isb	sy
 80049d8:	f3bf 8f4f 	dsb	sy
 80049dc:	e7fe      	b.n	80049dc <xTaskRemoveFromEventList+0x18>
 80049de:	f104 0118 	add.w	r1, r4, #24
 80049e2:	4608      	mov	r0, r1
 80049e4:	9101      	str	r1, [sp, #4]
 80049e6:	f7ff f8f4 	bl	8003bd2 <uxListRemove>
 80049ea:	4b12      	ldr	r3, [pc, #72]	; (8004a34 <xTaskRemoveFromEventList+0x70>)
 80049ec:	9901      	ldr	r1, [sp, #4]
 80049ee:	681b      	ldr	r3, [r3, #0]
 80049f0:	b9eb      	cbnz	r3, 8004a2e <xTaskRemoveFromEventList+0x6a>
 80049f2:	1d21      	adds	r1, r4, #4
 80049f4:	4608      	mov	r0, r1
 80049f6:	9101      	str	r1, [sp, #4]
 80049f8:	f7ff f8eb 	bl	8003bd2 <uxListRemove>
 80049fc:	4a0e      	ldr	r2, [pc, #56]	; (8004a38 <xTaskRemoveFromEventList+0x74>)
 80049fe:	6ae3      	ldr	r3, [r4, #44]	; 0x2c
 8004a00:	6810      	ldr	r0, [r2, #0]
 8004a02:	9901      	ldr	r1, [sp, #4]
 8004a04:	4283      	cmp	r3, r0
 8004a06:	bf88      	it	hi
 8004a08:	6013      	strhi	r3, [r2, #0]
 8004a0a:	4a0c      	ldr	r2, [pc, #48]	; (8004a3c <xTaskRemoveFromEventList+0x78>)
 8004a0c:	2014      	movs	r0, #20
 8004a0e:	fb00 2003 	mla	r0, r0, r3, r2
 8004a12:	f7ff f8bb 	bl	8003b8c <vListInsertEnd>
 8004a16:	4b0a      	ldr	r3, [pc, #40]	; (8004a40 <xTaskRemoveFromEventList+0x7c>)
 8004a18:	6ae2      	ldr	r2, [r4, #44]	; 0x2c
 8004a1a:	681b      	ldr	r3, [r3, #0]
 8004a1c:	6adb      	ldr	r3, [r3, #44]	; 0x2c
 8004a1e:	429a      	cmp	r2, r3
 8004a20:	bf85      	ittet	hi
 8004a22:	4b08      	ldrhi	r3, [pc, #32]	; (8004a44 <xTaskRemoveFromEventList+0x80>)
 8004a24:	2001      	movhi	r0, #1
 8004a26:	2000      	movls	r0, #0
 8004a28:	6018      	strhi	r0, [r3, #0]
 8004a2a:	b002      	add	sp, #8
 8004a2c:	bd10      	pop	{r4, pc}
 8004a2e:	4806      	ldr	r0, [pc, #24]	; (8004a48 <xTaskRemoveFromEventList+0x84>)
 8004a30:	e7ef      	b.n	8004a12 <xTaskRemoveFromEventList+0x4e>
 8004a32:	bf00      	nop
 8004a34:	20000fc0 	.word	0x20000fc0
 8004a38:	20000fc8 	.word	0x20000fc8
 8004a3c:	20000b58 	.word	0x20000b58
 8004a40:	20000b4c 	.word	0x20000b4c
 8004a44:	20001044 	.word	0x20001044
 8004a48:	20001000 	.word	0x20001000

08004a4c <vTaskInternalSetTimeOutState>:
 8004a4c:	4b03      	ldr	r3, [pc, #12]	; (8004a5c <vTaskInternalSetTimeOutState+0x10>)
 8004a4e:	681b      	ldr	r3, [r3, #0]
 8004a50:	6003      	str	r3, [r0, #0]
 8004a52:	4b03      	ldr	r3, [pc, #12]	; (8004a60 <vTaskInternalSetTimeOutState+0x14>)
 8004a54:	681b      	ldr	r3, [r3, #0]
 8004a56:	6043      	str	r3, [r0, #4]
 8004a58:	4770      	bx	lr
 8004a5a:	bf00      	nop
 8004a5c:	20000ff8 	.word	0x20000ff8
 8004a60:	20001040 	.word	0x20001040

08004a64 <xTaskCheckForTimeOut>:
 8004a64:	b570      	push	{r4, r5, r6, lr}
 8004a66:	460c      	mov	r4, r1
 8004a68:	4605      	mov	r5, r0
 8004a6a:	b940      	cbnz	r0, 8004a7e <xTaskCheckForTimeOut+0x1a>
 8004a6c:	f04f 0350 	mov.w	r3, #80	; 0x50
 8004a70:	f383 8811 	msr	BASEPRI, r3
 8004a74:	f3bf 8f6f 	isb	sy
 8004a78:	f3bf 8f4f 	dsb	sy
 8004a7c:	e7fe      	b.n	8004a7c <xTaskCheckForTimeOut+0x18>
 8004a7e:	b941      	cbnz	r1, 8004a92 <xTaskCheckForTimeOut+0x2e>
 8004a80:	f04f 0350 	mov.w	r3, #80	; 0x50
 8004a84:	f383 8811 	msr	BASEPRI, r3
 8004a88:	f3bf 8f6f 	isb	sy
 8004a8c:	f3bf 8f4f 	dsb	sy
 8004a90:	e7fe      	b.n	8004a90 <xTaskCheckForTimeOut+0x2c>
 8004a92:	f000 fbdf 	bl	8005254 <vPortEnterCritical>
 8004a96:	4b0f      	ldr	r3, [pc, #60]	; (8004ad4 <xTaskCheckForTimeOut+0x70>)
 8004a98:	6819      	ldr	r1, [r3, #0]
 8004a9a:	6823      	ldr	r3, [r4, #0]
 8004a9c:	1c5a      	adds	r2, r3, #1
 8004a9e:	d010      	beq.n	8004ac2 <xTaskCheckForTimeOut+0x5e>
 8004aa0:	480d      	ldr	r0, [pc, #52]	; (8004ad8 <xTaskCheckForTimeOut+0x74>)
 8004aa2:	682e      	ldr	r6, [r5, #0]
 8004aa4:	6800      	ldr	r0, [r0, #0]
 8004aa6:	686a      	ldr	r2, [r5, #4]
 8004aa8:	4286      	cmp	r6, r0
 8004aaa:	d001      	beq.n	8004ab0 <xTaskCheckForTimeOut+0x4c>
 8004aac:	428a      	cmp	r2, r1
 8004aae:	d90f      	bls.n	8004ad0 <xTaskCheckForTimeOut+0x6c>
 8004ab0:	1a88      	subs	r0, r1, r2
 8004ab2:	4283      	cmp	r3, r0
 8004ab4:	d90a      	bls.n	8004acc <xTaskCheckForTimeOut+0x68>
 8004ab6:	1a5b      	subs	r3, r3, r1
 8004ab8:	4413      	add	r3, r2
 8004aba:	6023      	str	r3, [r4, #0]
 8004abc:	4628      	mov	r0, r5
 8004abe:	f7ff ffc5 	bl	8004a4c <vTaskInternalSetTimeOutState>
 8004ac2:	2400      	movs	r4, #0
 8004ac4:	f000 fbe6 	bl	8005294 <vPortExitCritical>
 8004ac8:	4620      	mov	r0, r4
 8004aca:	bd70      	pop	{r4, r5, r6, pc}
 8004acc:	2300      	movs	r3, #0
 8004ace:	6023      	str	r3, [r4, #0]
 8004ad0:	2401      	movs	r4, #1
 8004ad2:	e7f7      	b.n	8004ac4 <xTaskCheckForTimeOut+0x60>
 8004ad4:	20001040 	.word	0x20001040
 8004ad8:	20000ff8 	.word	0x20000ff8

08004adc <vTaskMissedYield>:
 8004adc:	4b01      	ldr	r3, [pc, #4]	; (8004ae4 <vTaskMissedYield+0x8>)
 8004ade:	2201      	movs	r2, #1
 8004ae0:	601a      	str	r2, [r3, #0]
 8004ae2:	4770      	bx	lr
 8004ae4:	20001044 	.word	0x20001044

08004ae8 <xTaskGetSchedulerState>:
 8004ae8:	4b05      	ldr	r3, [pc, #20]	; (8004b00 <xTaskGetSchedulerState+0x18>)
 8004aea:	681b      	ldr	r3, [r3, #0]
 8004aec:	b133      	cbz	r3, 8004afc <xTaskGetSchedulerState+0x14>
 8004aee:	4b05      	ldr	r3, [pc, #20]	; (8004b04 <xTaskGetSchedulerState+0x1c>)
 8004af0:	681b      	ldr	r3, [r3, #0]
 8004af2:	2b00      	cmp	r3, #0
 8004af4:	bf0c      	ite	eq
 8004af6:	2002      	moveq	r0, #2
 8004af8:	2000      	movne	r0, #0
 8004afa:	4770      	bx	lr
 8004afc:	2001      	movs	r0, #1
 8004afe:	4770      	bx	lr
 8004b00:	20001014 	.word	0x20001014
 8004b04:	20000fc0 	.word	0x20000fc0

08004b08 <xTaskPriorityDisinherit>:
 8004b08:	b513      	push	{r0, r1, r4, lr}
 8004b0a:	b910      	cbnz	r0, 8004b12 <xTaskPriorityDisinherit+0xa>
 8004b0c:	2000      	movs	r0, #0
 8004b0e:	b002      	add	sp, #8
 8004b10:	bd10      	pop	{r4, pc}
 8004b12:	4b1c      	ldr	r3, [pc, #112]	; (8004b84 <xTaskPriorityDisinherit+0x7c>)
 8004b14:	681c      	ldr	r4, [r3, #0]
 8004b16:	4284      	cmp	r4, r0
 8004b18:	d008      	beq.n	8004b2c <xTaskPriorityDisinherit+0x24>
 8004b1a:	f04f 0350 	mov.w	r3, #80	; 0x50
 8004b1e:	f383 8811 	msr	BASEPRI, r3
 8004b22:	f3bf 8f6f 	isb	sy
 8004b26:	f3bf 8f4f 	dsb	sy
 8004b2a:	e7fe      	b.n	8004b2a <xTaskPriorityDisinherit+0x22>
 8004b2c:	6d23      	ldr	r3, [r4, #80]	; 0x50
 8004b2e:	b943      	cbnz	r3, 8004b42 <xTaskPriorityDisinherit+0x3a>
 8004b30:	f04f 0350 	mov.w	r3, #80	; 0x50
 8004b34:	f383 8811 	msr	BASEPRI, r3
 8004b38:	f3bf 8f6f 	isb	sy
 8004b3c:	f3bf 8f4f 	dsb	sy
 8004b40:	e7fe      	b.n	8004b40 <xTaskPriorityDisinherit+0x38>
 8004b42:	6ae1      	ldr	r1, [r4, #44]	; 0x2c
 8004b44:	6ce2      	ldr	r2, [r4, #76]	; 0x4c
 8004b46:	3b01      	subs	r3, #1
 8004b48:	4291      	cmp	r1, r2
 8004b4a:	6523      	str	r3, [r4, #80]	; 0x50
 8004b4c:	d0de      	beq.n	8004b0c <xTaskPriorityDisinherit+0x4>
 8004b4e:	2b00      	cmp	r3, #0
 8004b50:	d1dc      	bne.n	8004b0c <xTaskPriorityDisinherit+0x4>
 8004b52:	1d21      	adds	r1, r4, #4
 8004b54:	4608      	mov	r0, r1
 8004b56:	9101      	str	r1, [sp, #4]
 8004b58:	f7ff f83b 	bl	8003bd2 <uxListRemove>
 8004b5c:	6ce3      	ldr	r3, [r4, #76]	; 0x4c
 8004b5e:	9901      	ldr	r1, [sp, #4]
 8004b60:	62e3      	str	r3, [r4, #44]	; 0x2c
 8004b62:	f1c3 0238 	rsb	r2, r3, #56	; 0x38
 8004b66:	61a2      	str	r2, [r4, #24]
 8004b68:	4a07      	ldr	r2, [pc, #28]	; (8004b88 <xTaskPriorityDisinherit+0x80>)
 8004b6a:	6810      	ldr	r0, [r2, #0]
 8004b6c:	4283      	cmp	r3, r0
 8004b6e:	bf88      	it	hi
 8004b70:	6013      	strhi	r3, [r2, #0]
 8004b72:	4a06      	ldr	r2, [pc, #24]	; (8004b8c <xTaskPriorityDisinherit+0x84>)
 8004b74:	2014      	movs	r0, #20
 8004b76:	fb00 2003 	mla	r0, r0, r3, r2
 8004b7a:	f7ff f807 	bl	8003b8c <vListInsertEnd>
 8004b7e:	2001      	movs	r0, #1
 8004b80:	e7c5      	b.n	8004b0e <xTaskPriorityDisinherit+0x6>
 8004b82:	bf00      	nop
 8004b84:	20000b4c 	.word	0x20000b4c
 8004b88:	20000fc8 	.word	0x20000fc8
 8004b8c:	20000b58 	.word	0x20000b58

08004b90 <xTaskGenericNotify>:
 8004b90:	b5f7      	push	{r0, r1, r2, r4, r5, r6, r7, lr}
 8004b92:	460d      	mov	r5, r1
 8004b94:	4616      	mov	r6, r2
 8004b96:	461f      	mov	r7, r3
 8004b98:	4604      	mov	r4, r0
 8004b9a:	b940      	cbnz	r0, 8004bae <xTaskGenericNotify+0x1e>
 8004b9c:	f04f 0350 	mov.w	r3, #80	; 0x50
 8004ba0:	f383 8811 	msr	BASEPRI, r3
 8004ba4:	f3bf 8f6f 	isb	sy
 8004ba8:	f3bf 8f4f 	dsb	sy
 8004bac:	e7fe      	b.n	8004bac <xTaskGenericNotify+0x1c>
 8004bae:	f000 fb51 	bl	8005254 <vPortEnterCritical>
 8004bb2:	b117      	cbz	r7, 8004bba <xTaskGenericNotify+0x2a>
 8004bb4:	f8d4 30b4 	ldr.w	r3, [r4, #180]	; 0xb4
 8004bb8:	603b      	str	r3, [r7, #0]
 8004bba:	f894 30b8 	ldrb.w	r3, [r4, #184]	; 0xb8
 8004bbe:	2202      	movs	r2, #2
 8004bc0:	b2db      	uxtb	r3, r3
 8004bc2:	f884 20b8 	strb.w	r2, [r4, #184]	; 0xb8
 8004bc6:	2e04      	cmp	r6, #4
 8004bc8:	d81b      	bhi.n	8004c02 <xTaskGenericNotify+0x72>
 8004bca:	e8df f006 	tbb	[pc, r6]
 8004bce:	030e      	.short	0x030e
 8004bd0:	0609      	.short	0x0609
 8004bd2:	16          	.byte	0x16
 8004bd3:	00          	.byte	0x00
 8004bd4:	f8d4 10b4 	ldr.w	r1, [r4, #180]	; 0xb4
 8004bd8:	430d      	orrs	r5, r1
 8004bda:	f8c4 50b4 	str.w	r5, [r4, #180]	; 0xb4
 8004bde:	e004      	b.n	8004bea <xTaskGenericNotify+0x5a>
 8004be0:	f8d4 20b4 	ldr.w	r2, [r4, #180]	; 0xb4
 8004be4:	3201      	adds	r2, #1
 8004be6:	f8c4 20b4 	str.w	r2, [r4, #180]	; 0xb4
 8004bea:	2b01      	cmp	r3, #1
 8004bec:	d016      	beq.n	8004c1c <xTaskGenericNotify+0x8c>
 8004bee:	2401      	movs	r4, #1
 8004bf0:	f000 fb50 	bl	8005294 <vPortExitCritical>
 8004bf4:	4620      	mov	r0, r4
 8004bf6:	b003      	add	sp, #12
 8004bf8:	bdf0      	pop	{r4, r5, r6, r7, pc}
 8004bfa:	2b02      	cmp	r3, #2
 8004bfc:	d1ed      	bne.n	8004bda <xTaskGenericNotify+0x4a>
 8004bfe:	2400      	movs	r4, #0
 8004c00:	e7f6      	b.n	8004bf0 <xTaskGenericNotify+0x60>
 8004c02:	f8d4 20b4 	ldr.w	r2, [r4, #180]	; 0xb4
 8004c06:	3201      	adds	r2, #1
 8004c08:	d0ef      	beq.n	8004bea <xTaskGenericNotify+0x5a>
 8004c0a:	f04f 0350 	mov.w	r3, #80	; 0x50
 8004c0e:	f383 8811 	msr	BASEPRI, r3
 8004c12:	f3bf 8f6f 	isb	sy
 8004c16:	f3bf 8f4f 	dsb	sy
 8004c1a:	e7fe      	b.n	8004c1a <xTaskGenericNotify+0x8a>
 8004c1c:	1d21      	adds	r1, r4, #4
 8004c1e:	4608      	mov	r0, r1
 8004c20:	9101      	str	r1, [sp, #4]
 8004c22:	f7fe ffd6 	bl	8003bd2 <uxListRemove>
 8004c26:	4a14      	ldr	r2, [pc, #80]	; (8004c78 <xTaskGenericNotify+0xe8>)
 8004c28:	6ae3      	ldr	r3, [r4, #44]	; 0x2c
 8004c2a:	6810      	ldr	r0, [r2, #0]
 8004c2c:	9901      	ldr	r1, [sp, #4]
 8004c2e:	4283      	cmp	r3, r0
 8004c30:	bf88      	it	hi
 8004c32:	6013      	strhi	r3, [r2, #0]
 8004c34:	4a11      	ldr	r2, [pc, #68]	; (8004c7c <xTaskGenericNotify+0xec>)
 8004c36:	2014      	movs	r0, #20
 8004c38:	fb00 2003 	mla	r0, r0, r3, r2
 8004c3c:	f7fe ffa6 	bl	8003b8c <vListInsertEnd>
 8004c40:	6aa3      	ldr	r3, [r4, #40]	; 0x28
 8004c42:	b143      	cbz	r3, 8004c56 <xTaskGenericNotify+0xc6>
 8004c44:	f04f 0350 	mov.w	r3, #80	; 0x50
 8004c48:	f383 8811 	msr	BASEPRI, r3
 8004c4c:	f3bf 8f6f 	isb	sy
 8004c50:	f3bf 8f4f 	dsb	sy
 8004c54:	e7fe      	b.n	8004c54 <xTaskGenericNotify+0xc4>
 8004c56:	4b0a      	ldr	r3, [pc, #40]	; (8004c80 <xTaskGenericNotify+0xf0>)
 8004c58:	6ae2      	ldr	r2, [r4, #44]	; 0x2c
 8004c5a:	681b      	ldr	r3, [r3, #0]
 8004c5c:	6adb      	ldr	r3, [r3, #44]	; 0x2c
 8004c5e:	429a      	cmp	r2, r3
 8004c60:	d9c5      	bls.n	8004bee <xTaskGenericNotify+0x5e>
 8004c62:	f04f 23e0 	mov.w	r3, #3758153728	; 0xe000e000
 8004c66:	f04f 5280 	mov.w	r2, #268435456	; 0x10000000
 8004c6a:	f8c3 2d04 	str.w	r2, [r3, #3332]	; 0xd04
 8004c6e:	f3bf 8f4f 	dsb	sy
 8004c72:	f3bf 8f6f 	isb	sy
 8004c76:	e7ba      	b.n	8004bee <xTaskGenericNotify+0x5e>
 8004c78:	20000fc8 	.word	0x20000fc8
 8004c7c:	20000b58 	.word	0x20000b58
 8004c80:	20000b4c 	.word	0x20000b4c

08004c84 <xTaskGenericNotifyFromISR>:
 8004c84:	e92d 43f7 	stmdb	sp!, {r0, r1, r2, r4, r5, r6, r7, r8, r9, lr}
 8004c88:	f8dd 9028 	ldr.w	r9, [sp, #40]	; 0x28
 8004c8c:	460d      	mov	r5, r1
 8004c8e:	4616      	mov	r6, r2
 8004c90:	461f      	mov	r7, r3
 8004c92:	4604      	mov	r4, r0
 8004c94:	b940      	cbnz	r0, 8004ca8 <xTaskGenericNotifyFromISR+0x24>
 8004c96:	f04f 0350 	mov.w	r3, #80	; 0x50
 8004c9a:	f383 8811 	msr	BASEPRI, r3
 8004c9e:	f3bf 8f6f 	isb	sy
 8004ca2:	f3bf 8f4f 	dsb	sy
 8004ca6:	e7fe      	b.n	8004ca6 <xTaskGenericNotifyFromISR+0x22>
 8004ca8:	f000 fbea 	bl	8005480 <vPortValidateInterruptPriority>
 8004cac:	f3ef 8811 	mrs	r8, BASEPRI
 8004cb0:	f04f 0350 	mov.w	r3, #80	; 0x50
 8004cb4:	f383 8811 	msr	BASEPRI, r3
 8004cb8:	f3bf 8f6f 	isb	sy
 8004cbc:	f3bf 8f4f 	dsb	sy
 8004cc0:	b117      	cbz	r7, 8004cc8 <xTaskGenericNotifyFromISR+0x44>
 8004cc2:	f8d4 30b4 	ldr.w	r3, [r4, #180]	; 0xb4
 8004cc6:	603b      	str	r3, [r7, #0]
 8004cc8:	f894 30b8 	ldrb.w	r3, [r4, #184]	; 0xb8
 8004ccc:	2202      	movs	r2, #2
 8004cce:	b2db      	uxtb	r3, r3
 8004cd0:	f884 20b8 	strb.w	r2, [r4, #184]	; 0xb8
 8004cd4:	2e04      	cmp	r6, #4
 8004cd6:	d81b      	bhi.n	8004d10 <xTaskGenericNotifyFromISR+0x8c>
 8004cd8:	e8df f006 	tbb	[pc, r6]
 8004cdc:	0609030e 	.word	0x0609030e
 8004ce0:	16          	.byte	0x16
 8004ce1:	00          	.byte	0x00
 8004ce2:	f8d4 10b4 	ldr.w	r1, [r4, #180]	; 0xb4
 8004ce6:	430d      	orrs	r5, r1
 8004ce8:	f8c4 50b4 	str.w	r5, [r4, #180]	; 0xb4
 8004cec:	e004      	b.n	8004cf8 <xTaskGenericNotifyFromISR+0x74>
 8004cee:	f8d4 20b4 	ldr.w	r2, [r4, #180]	; 0xb4
 8004cf2:	3201      	adds	r2, #1
 8004cf4:	f8c4 20b4 	str.w	r2, [r4, #180]	; 0xb4
 8004cf8:	2b01      	cmp	r3, #1
 8004cfa:	d016      	beq.n	8004d2a <xTaskGenericNotifyFromISR+0xa6>
 8004cfc:	2001      	movs	r0, #1
 8004cfe:	f388 8811 	msr	BASEPRI, r8
 8004d02:	b003      	add	sp, #12
 8004d04:	e8bd 83f0 	ldmia.w	sp!, {r4, r5, r6, r7, r8, r9, pc}
 8004d08:	2b02      	cmp	r3, #2
 8004d0a:	d1ed      	bne.n	8004ce8 <xTaskGenericNotifyFromISR+0x64>
 8004d0c:	2000      	movs	r0, #0
 8004d0e:	e7f6      	b.n	8004cfe <xTaskGenericNotifyFromISR+0x7a>
 8004d10:	f8d4 20b4 	ldr.w	r2, [r4, #180]	; 0xb4
 8004d14:	3201      	adds	r2, #1
 8004d16:	d0ef      	beq.n	8004cf8 <xTaskGenericNotifyFromISR+0x74>
 8004d18:	f04f 0350 	mov.w	r3, #80	; 0x50
 8004d1c:	f383 8811 	msr	BASEPRI, r3
 8004d20:	f3bf 8f6f 	isb	sy
 8004d24:	f3bf 8f4f 	dsb	sy
 8004d28:	e7fe      	b.n	8004d28 <xTaskGenericNotifyFromISR+0xa4>
 8004d2a:	6aa3      	ldr	r3, [r4, #40]	; 0x28
 8004d2c:	b143      	cbz	r3, 8004d40 <xTaskGenericNotifyFromISR+0xbc>
 8004d2e:	f04f 0350 	mov.w	r3, #80	; 0x50
 8004d32:	f383 8811 	msr	BASEPRI, r3
 8004d36:	f3bf 8f6f 	isb	sy
 8004d3a:	f3bf 8f4f 	dsb	sy
 8004d3e:	e7fe      	b.n	8004d3e <xTaskGenericNotifyFromISR+0xba>
 8004d40:	4b13      	ldr	r3, [pc, #76]	; (8004d90 <xTaskGenericNotifyFromISR+0x10c>)
 8004d42:	681b      	ldr	r3, [r3, #0]
 8004d44:	bb03      	cbnz	r3, 8004d88 <xTaskGenericNotifyFromISR+0x104>
 8004d46:	1d21      	adds	r1, r4, #4
 8004d48:	4608      	mov	r0, r1
 8004d4a:	9101      	str	r1, [sp, #4]
 8004d4c:	f7fe ff41 	bl	8003bd2 <uxListRemove>
 8004d50:	4a10      	ldr	r2, [pc, #64]	; (8004d94 <xTaskGenericNotifyFromISR+0x110>)
 8004d52:	6ae3      	ldr	r3, [r4, #44]	; 0x2c
 8004d54:	6810      	ldr	r0, [r2, #0]
 8004d56:	9901      	ldr	r1, [sp, #4]
 8004d58:	4283      	cmp	r3, r0
 8004d5a:	bf88      	it	hi
 8004d5c:	6013      	strhi	r3, [r2, #0]
 8004d5e:	4a0e      	ldr	r2, [pc, #56]	; (8004d98 <xTaskGenericNotifyFromISR+0x114>)
 8004d60:	2014      	movs	r0, #20
 8004d62:	fb00 2003 	mla	r0, r0, r3, r2
 8004d66:	f7fe ff11 	bl	8003b8c <vListInsertEnd>
 8004d6a:	4b0c      	ldr	r3, [pc, #48]	; (8004d9c <xTaskGenericNotifyFromISR+0x118>)
 8004d6c:	6ae2      	ldr	r2, [r4, #44]	; 0x2c
 8004d6e:	681b      	ldr	r3, [r3, #0]
 8004d70:	6adb      	ldr	r3, [r3, #44]	; 0x2c
 8004d72:	429a      	cmp	r2, r3
 8004d74:	d9c2      	bls.n	8004cfc <xTaskGenericNotifyFromISR+0x78>
 8004d76:	2301      	movs	r3, #1
 8004d78:	f1b9 0f00 	cmp.w	r9, #0
 8004d7c:	d001      	beq.n	8004d82 <xTaskGenericNotifyFromISR+0xfe>
 8004d7e:	f8c9 3000 	str.w	r3, [r9]
 8004d82:	4a07      	ldr	r2, [pc, #28]	; (8004da0 <xTaskGenericNotifyFromISR+0x11c>)
 8004d84:	6013      	str	r3, [r2, #0]
 8004d86:	e7b9      	b.n	8004cfc <xTaskGenericNotifyFromISR+0x78>
 8004d88:	4806      	ldr	r0, [pc, #24]	; (8004da4 <xTaskGenericNotifyFromISR+0x120>)
 8004d8a:	f104 0118 	add.w	r1, r4, #24
 8004d8e:	e7ea      	b.n	8004d66 <xTaskGenericNotifyFromISR+0xe2>
 8004d90:	20000fc0 	.word	0x20000fc0
 8004d94:	20000fc8 	.word	0x20000fc8
 8004d98:	20000b58 	.word	0x20000b58
 8004d9c:	20000b4c 	.word	0x20000b4c
 8004da0:	20001044 	.word	0x20001044
 8004da4:	20001000 	.word	0x20001000

08004da8 <prvCheckForValidListAndQueue>:
 8004da8:	b5f7      	push	{r0, r1, r2, r4, r5, r6, r7, lr}
 8004daa:	4c11      	ldr	r4, [pc, #68]	; (8004df0 <prvCheckForValidListAndQueue+0x48>)
 8004dac:	f000 fa52 	bl	8005254 <vPortEnterCritical>
 8004db0:	6825      	ldr	r5, [r4, #0]
 8004db2:	b9bd      	cbnz	r5, 8004de4 <prvCheckForValidListAndQueue+0x3c>
 8004db4:	4f0f      	ldr	r7, [pc, #60]	; (8004df4 <prvCheckForValidListAndQueue+0x4c>)
 8004db6:	4e10      	ldr	r6, [pc, #64]	; (8004df8 <prvCheckForValidListAndQueue+0x50>)
 8004db8:	4638      	mov	r0, r7
 8004dba:	f7fe fed9 	bl	8003b70 <vListInitialise>
 8004dbe:	4630      	mov	r0, r6
 8004dc0:	f7fe fed6 	bl	8003b70 <vListInitialise>
 8004dc4:	4b0d      	ldr	r3, [pc, #52]	; (8004dfc <prvCheckForValidListAndQueue+0x54>)
 8004dc6:	4a0e      	ldr	r2, [pc, #56]	; (8004e00 <prvCheckForValidListAndQueue+0x58>)
 8004dc8:	601f      	str	r7, [r3, #0]
 8004dca:	4b0e      	ldr	r3, [pc, #56]	; (8004e04 <prvCheckForValidListAndQueue+0x5c>)
 8004dcc:	2110      	movs	r1, #16
 8004dce:	601e      	str	r6, [r3, #0]
 8004dd0:	200a      	movs	r0, #10
 8004dd2:	4b0d      	ldr	r3, [pc, #52]	; (8004e08 <prvCheckForValidListAndQueue+0x60>)
 8004dd4:	9500      	str	r5, [sp, #0]
 8004dd6:	f7fe ffd9 	bl	8003d8c <xQueueGenericCreateStatic>
 8004dda:	6020      	str	r0, [r4, #0]
 8004ddc:	b110      	cbz	r0, 8004de4 <prvCheckForValidListAndQueue+0x3c>
 8004dde:	490b      	ldr	r1, [pc, #44]	; (8004e0c <prvCheckForValidListAndQueue+0x64>)
 8004de0:	f7ff f9d6 	bl	8004190 <vQueueAddToRegistry>
 8004de4:	b003      	add	sp, #12
 8004de6:	e8bd 40f0 	ldmia.w	sp!, {r4, r5, r6, r7, lr}
 8004dea:	f000 ba53 	b.w	8005294 <vPortExitCritical>
 8004dee:	bf00      	nop
 8004df0:	2000116c 	.word	0x2000116c
 8004df4:	200010f0 	.word	0x200010f0
 8004df8:	20001104 	.word	0x20001104
 8004dfc:	20001048 	.word	0x20001048
 8004e00:	20001050 	.word	0x20001050
 8004e04:	2000104c 	.word	0x2000104c
 8004e08:	2000111c 	.word	0x2000111c
 8004e0c:	080059d1 	.word	0x080059d1

08004e10 <prvInsertTimerInActiveList>:
 8004e10:	4291      	cmp	r1, r2
 8004e12:	b508      	push	{r3, lr}
 8004e14:	6041      	str	r1, [r0, #4]
 8004e16:	6100      	str	r0, [r0, #16]
 8004e18:	d80a      	bhi.n	8004e30 <prvInsertTimerInActiveList+0x20>
 8004e1a:	1ad2      	subs	r2, r2, r3
 8004e1c:	6983      	ldr	r3, [r0, #24]
 8004e1e:	429a      	cmp	r2, r3
 8004e20:	d20d      	bcs.n	8004e3e <prvInsertTimerInActiveList+0x2e>
 8004e22:	4b08      	ldr	r3, [pc, #32]	; (8004e44 <prvInsertTimerInActiveList+0x34>)
 8004e24:	1d01      	adds	r1, r0, #4
 8004e26:	6818      	ldr	r0, [r3, #0]
 8004e28:	f7fe febc 	bl	8003ba4 <vListInsert>
 8004e2c:	2000      	movs	r0, #0
 8004e2e:	bd08      	pop	{r3, pc}
 8004e30:	429a      	cmp	r2, r3
 8004e32:	d201      	bcs.n	8004e38 <prvInsertTimerInActiveList+0x28>
 8004e34:	4299      	cmp	r1, r3
 8004e36:	d202      	bcs.n	8004e3e <prvInsertTimerInActiveList+0x2e>
 8004e38:	4b03      	ldr	r3, [pc, #12]	; (8004e48 <prvInsertTimerInActiveList+0x38>)
 8004e3a:	1d01      	adds	r1, r0, #4
 8004e3c:	e7f3      	b.n	8004e26 <prvInsertTimerInActiveList+0x16>
 8004e3e:	2001      	movs	r0, #1
 8004e40:	e7f5      	b.n	8004e2e <prvInsertTimerInActiveList+0x1e>
 8004e42:	bf00      	nop
 8004e44:	2000104c 	.word	0x2000104c
 8004e48:	20001048 	.word	0x20001048

08004e4c <xTimerCreateTimerTask>:
 8004e4c:	b510      	push	{r4, lr}
 8004e4e:	b088      	sub	sp, #32
 8004e50:	f7ff ffaa 	bl	8004da8 <prvCheckForValidListAndQueue>
 8004e54:	4b12      	ldr	r3, [pc, #72]	; (8004ea0 <xTimerCreateTimerTask+0x54>)
 8004e56:	681b      	ldr	r3, [r3, #0]
 8004e58:	b1b3      	cbz	r3, 8004e88 <xTimerCreateTimerTask+0x3c>
 8004e5a:	2400      	movs	r4, #0
 8004e5c:	aa07      	add	r2, sp, #28
 8004e5e:	a906      	add	r1, sp, #24
 8004e60:	a805      	add	r0, sp, #20
 8004e62:	e9cd 4405 	strd	r4, r4, [sp, #20]
 8004e66:	f7fe fe77 	bl	8003b58 <vApplicationGetTimerTaskMemory>
 8004e6a:	9b05      	ldr	r3, [sp, #20]
 8004e6c:	9302      	str	r3, [sp, #8]
 8004e6e:	9b06      	ldr	r3, [sp, #24]
 8004e70:	9301      	str	r3, [sp, #4]
 8004e72:	2302      	movs	r3, #2
 8004e74:	9300      	str	r3, [sp, #0]
 8004e76:	9a07      	ldr	r2, [sp, #28]
 8004e78:	490a      	ldr	r1, [pc, #40]	; (8004ea4 <xTimerCreateTimerTask+0x58>)
 8004e7a:	480b      	ldr	r0, [pc, #44]	; (8004ea8 <xTimerCreateTimerTask+0x5c>)
 8004e7c:	4623      	mov	r3, r4
 8004e7e:	f7ff fb37 	bl	80044f0 <xTaskCreateStatic>
 8004e82:	4b0a      	ldr	r3, [pc, #40]	; (8004eac <xTimerCreateTimerTask+0x60>)
 8004e84:	6018      	str	r0, [r3, #0]
 8004e86:	b940      	cbnz	r0, 8004e9a <xTimerCreateTimerTask+0x4e>
 8004e88:	f04f 0350 	mov.w	r3, #80	; 0x50
 8004e8c:	f383 8811 	msr	BASEPRI, r3
 8004e90:	f3bf 8f6f 	isb	sy
 8004e94:	f3bf 8f4f 	dsb	sy
 8004e98:	e7fe      	b.n	8004e98 <xTimerCreateTimerTask+0x4c>
 8004e9a:	2001      	movs	r0, #1
 8004e9c:	b008      	add	sp, #32
 8004e9e:	bd10      	pop	{r4, pc}
 8004ea0:	2000116c 	.word	0x2000116c
 8004ea4:	080059d6 	.word	0x080059d6
 8004ea8:	08004fb5 	.word	0x08004fb5
 8004eac:	20001170 	.word	0x20001170

08004eb0 <xTimerGenericCommand>:
 8004eb0:	b57f      	push	{r0, r1, r2, r3, r4, r5, r6, lr}
 8004eb2:	4616      	mov	r6, r2
 8004eb4:	4604      	mov	r4, r0
 8004eb6:	461a      	mov	r2, r3
 8004eb8:	b940      	cbnz	r0, 8004ecc <xTimerGenericCommand+0x1c>
 8004eba:	f04f 0350 	mov.w	r3, #80	; 0x50
 8004ebe:	f383 8811 	msr	BASEPRI, r3
 8004ec2:	f3bf 8f6f 	isb	sy
 8004ec6:	f3bf 8f4f 	dsb	sy
 8004eca:	e7fe      	b.n	8004eca <xTimerGenericCommand+0x1a>
 8004ecc:	4d0d      	ldr	r5, [pc, #52]	; (8004f04 <xTimerGenericCommand+0x54>)
 8004ece:	6828      	ldr	r0, [r5, #0]
 8004ed0:	b180      	cbz	r0, 8004ef4 <xTimerGenericCommand+0x44>
 8004ed2:	2905      	cmp	r1, #5
 8004ed4:	e9cd 1600 	strd	r1, r6, [sp]
 8004ed8:	9402      	str	r4, [sp, #8]
 8004eda:	dc0d      	bgt.n	8004ef8 <xTimerGenericCommand+0x48>
 8004edc:	f7ff fe04 	bl	8004ae8 <xTaskGetSchedulerState>
 8004ee0:	2300      	movs	r3, #0
 8004ee2:	2802      	cmp	r0, #2
 8004ee4:	bf08      	it	eq
 8004ee6:	9a08      	ldreq	r2, [sp, #32]
 8004ee8:	6828      	ldr	r0, [r5, #0]
 8004eea:	bf18      	it	ne
 8004eec:	461a      	movne	r2, r3
 8004eee:	4669      	mov	r1, sp
 8004ef0:	f7fe ff9a 	bl	8003e28 <xQueueGenericSend>
 8004ef4:	b004      	add	sp, #16
 8004ef6:	bd70      	pop	{r4, r5, r6, pc}
 8004ef8:	2300      	movs	r3, #0
 8004efa:	4669      	mov	r1, sp
 8004efc:	f7ff f847 	bl	8003f8e <xQueueGenericSendFromISR>
 8004f00:	e7f8      	b.n	8004ef4 <xTimerGenericCommand+0x44>
 8004f02:	bf00      	nop
 8004f04:	2000116c 	.word	0x2000116c

08004f08 <prvSampleTimeNow>:
 8004f08:	e92d 47ff 	stmdb	sp!, {r0, r1, r2, r3, r4, r5, r6, r7, r8, r9, sl, lr}
 8004f0c:	f8df 80a0 	ldr.w	r8, [pc, #160]	; 8004fb0 <prvSampleTimeNow+0xa8>
 8004f10:	4606      	mov	r6, r0
 8004f12:	f7ff fbab 	bl	800466c <xTaskGetTickCount>
 8004f16:	f8d8 3000 	ldr.w	r3, [r8]
 8004f1a:	4283      	cmp	r3, r0
 8004f1c:	4605      	mov	r5, r0
 8004f1e:	d940      	bls.n	8004fa2 <prvSampleTimeNow+0x9a>
 8004f20:	4f21      	ldr	r7, [pc, #132]	; (8004fa8 <prvSampleTimeNow+0xa0>)
 8004f22:	f04f 0900 	mov.w	r9, #0
 8004f26:	683b      	ldr	r3, [r7, #0]
 8004f28:	681a      	ldr	r2, [r3, #0]
 8004f2a:	b95a      	cbnz	r2, 8004f44 <prvSampleTimeNow+0x3c>
 8004f2c:	4a1f      	ldr	r2, [pc, #124]	; (8004fac <prvSampleTimeNow+0xa4>)
 8004f2e:	6811      	ldr	r1, [r2, #0]
 8004f30:	6039      	str	r1, [r7, #0]
 8004f32:	6013      	str	r3, [r2, #0]
 8004f34:	2301      	movs	r3, #1
 8004f36:	4628      	mov	r0, r5
 8004f38:	6033      	str	r3, [r6, #0]
 8004f3a:	f8c8 5000 	str.w	r5, [r8]
 8004f3e:	b004      	add	sp, #16
 8004f40:	e8bd 87f0 	ldmia.w	sp!, {r4, r5, r6, r7, r8, r9, sl, pc}
 8004f44:	68db      	ldr	r3, [r3, #12]
 8004f46:	68dc      	ldr	r4, [r3, #12]
 8004f48:	f8d3 a000 	ldr.w	sl, [r3]
 8004f4c:	1d21      	adds	r1, r4, #4
 8004f4e:	4608      	mov	r0, r1
 8004f50:	9103      	str	r1, [sp, #12]
 8004f52:	f7fe fe3e 	bl	8003bd2 <uxListRemove>
 8004f56:	6a23      	ldr	r3, [r4, #32]
 8004f58:	4620      	mov	r0, r4
 8004f5a:	4798      	blx	r3
 8004f5c:	f894 3028 	ldrb.w	r3, [r4, #40]	; 0x28
 8004f60:	9903      	ldr	r1, [sp, #12]
 8004f62:	f013 0f04 	tst.w	r3, #4
 8004f66:	d0de      	beq.n	8004f26 <prvSampleTimeNow+0x1e>
 8004f68:	69a3      	ldr	r3, [r4, #24]
 8004f6a:	4453      	add	r3, sl
 8004f6c:	459a      	cmp	sl, r3
 8004f6e:	d205      	bcs.n	8004f7c <prvSampleTimeNow+0x74>
 8004f70:	6838      	ldr	r0, [r7, #0]
 8004f72:	6063      	str	r3, [r4, #4]
 8004f74:	6124      	str	r4, [r4, #16]
 8004f76:	f7fe fe15 	bl	8003ba4 <vListInsert>
 8004f7a:	e7d4      	b.n	8004f26 <prvSampleTimeNow+0x1e>
 8004f7c:	2300      	movs	r3, #0
 8004f7e:	f8cd 9000 	str.w	r9, [sp]
 8004f82:	4652      	mov	r2, sl
 8004f84:	4619      	mov	r1, r3
 8004f86:	4620      	mov	r0, r4
 8004f88:	f7ff ff92 	bl	8004eb0 <xTimerGenericCommand>
 8004f8c:	2800      	cmp	r0, #0
 8004f8e:	d1ca      	bne.n	8004f26 <prvSampleTimeNow+0x1e>
 8004f90:	f04f 0350 	mov.w	r3, #80	; 0x50
 8004f94:	f383 8811 	msr	BASEPRI, r3
 8004f98:	f3bf 8f6f 	isb	sy
 8004f9c:	f3bf 8f4f 	dsb	sy
 8004fa0:	e7fe      	b.n	8004fa0 <prvSampleTimeNow+0x98>
 8004fa2:	2300      	movs	r3, #0
 8004fa4:	e7c7      	b.n	8004f36 <prvSampleTimeNow+0x2e>
 8004fa6:	bf00      	nop
 8004fa8:	20001048 	.word	0x20001048
 8004fac:	2000104c 	.word	0x2000104c
 8004fb0:	20001118 	.word	0x20001118

08004fb4 <prvTimerTask>:
 8004fb4:	e92d 43f0 	stmdb	sp!, {r4, r5, r6, r7, r8, r9, lr}
 8004fb8:	4d6e      	ldr	r5, [pc, #440]	; (8005174 <prvTimerTask+0x1c0>)
 8004fba:	4e6f      	ldr	r6, [pc, #444]	; (8005178 <prvTimerTask+0x1c4>)
 8004fbc:	b089      	sub	sp, #36	; 0x24
 8004fbe:	682b      	ldr	r3, [r5, #0]
 8004fc0:	f8d3 8000 	ldr.w	r8, [r3]
 8004fc4:	f1b8 0f00 	cmp.w	r8, #0
 8004fc8:	d035      	beq.n	8005036 <prvTimerTask+0x82>
 8004fca:	68db      	ldr	r3, [r3, #12]
 8004fcc:	f8d3 8000 	ldr.w	r8, [r3]
 8004fd0:	2400      	movs	r4, #0
 8004fd2:	f7ff fb43 	bl	800465c <vTaskSuspendAll>
 8004fd6:	a804      	add	r0, sp, #16
 8004fd8:	f7ff ff96 	bl	8004f08 <prvSampleTimeNow>
 8004fdc:	9b04      	ldr	r3, [sp, #16]
 8004fde:	4681      	mov	r9, r0
 8004fe0:	2b00      	cmp	r3, #0
 8004fe2:	d169      	bne.n	80050b8 <prvTimerTask+0x104>
 8004fe4:	2c00      	cmp	r4, #0
 8004fe6:	d14c      	bne.n	8005082 <prvTimerTask+0xce>
 8004fe8:	4540      	cmp	r0, r8
 8004fea:	d350      	bcc.n	800508e <prvTimerTask+0xda>
 8004fec:	f7ff fbda 	bl	80047a4 <xTaskResumeAll>
 8004ff0:	682b      	ldr	r3, [r5, #0]
 8004ff2:	68db      	ldr	r3, [r3, #12]
 8004ff4:	68df      	ldr	r7, [r3, #12]
 8004ff6:	1d38      	adds	r0, r7, #4
 8004ff8:	f7fe fdeb 	bl	8003bd2 <uxListRemove>
 8004ffc:	f897 3028 	ldrb.w	r3, [r7, #40]	; 0x28
 8005000:	0758      	lsls	r0, r3, #29
 8005002:	d51a      	bpl.n	800503a <prvTimerTask+0x86>
 8005004:	69b9      	ldr	r1, [r7, #24]
 8005006:	4643      	mov	r3, r8
 8005008:	464a      	mov	r2, r9
 800500a:	4441      	add	r1, r8
 800500c:	4638      	mov	r0, r7
 800500e:	f7ff feff 	bl	8004e10 <prvInsertTimerInActiveList>
 8005012:	b1b0      	cbz	r0, 8005042 <prvTimerTask+0x8e>
 8005014:	9400      	str	r4, [sp, #0]
 8005016:	4623      	mov	r3, r4
 8005018:	4642      	mov	r2, r8
 800501a:	4621      	mov	r1, r4
 800501c:	4638      	mov	r0, r7
 800501e:	f7ff ff47 	bl	8004eb0 <xTimerGenericCommand>
 8005022:	b970      	cbnz	r0, 8005042 <prvTimerTask+0x8e>
 8005024:	f04f 0350 	mov.w	r3, #80	; 0x50
 8005028:	f383 8811 	msr	BASEPRI, r3
 800502c:	f3bf 8f6f 	isb	sy
 8005030:	f3bf 8f4f 	dsb	sy
 8005034:	e7fe      	b.n	8005034 <prvTimerTask+0x80>
 8005036:	2401      	movs	r4, #1
 8005038:	e7cb      	b.n	8004fd2 <prvTimerTask+0x1e>
 800503a:	f023 0301 	bic.w	r3, r3, #1
 800503e:	f887 3028 	strb.w	r3, [r7, #40]	; 0x28
 8005042:	6a3b      	ldr	r3, [r7, #32]
 8005044:	4638      	mov	r0, r7
 8005046:	4798      	blx	r3
 8005048:	6830      	ldr	r0, [r6, #0]
 800504a:	2200      	movs	r2, #0
 800504c:	a904      	add	r1, sp, #16
 800504e:	f7ff f800 	bl	8004052 <xQueueReceive>
 8005052:	2800      	cmp	r0, #0
 8005054:	d0b3      	beq.n	8004fbe <prvTimerTask+0xa>
 8005056:	9b04      	ldr	r3, [sp, #16]
 8005058:	9806      	ldr	r0, [sp, #24]
 800505a:	2b00      	cmp	r3, #0
 800505c:	db2f      	blt.n	80050be <prvTimerTask+0x10a>
 800505e:	9c06      	ldr	r4, [sp, #24]
 8005060:	6963      	ldr	r3, [r4, #20]
 8005062:	2b00      	cmp	r3, #0
 8005064:	d132      	bne.n	80050cc <prvTimerTask+0x118>
 8005066:	a803      	add	r0, sp, #12
 8005068:	f7ff ff4e 	bl	8004f08 <prvSampleTimeNow>
 800506c:	9b04      	ldr	r3, [sp, #16]
 800506e:	4602      	mov	r2, r0
 8005070:	2b09      	cmp	r3, #9
 8005072:	d8e9      	bhi.n	8005048 <prvTimerTask+0x94>
 8005074:	e8df f003 	tbb	[pc, r3]
 8005078:	572e2e2e 	.word	0x572e2e2e
 800507c:	2e2e765e 	.word	0x2e2e765e
 8005080:	5e57      	.short	0x5e57
 8005082:	4b3e      	ldr	r3, [pc, #248]	; (800517c <prvTimerTask+0x1c8>)
 8005084:	681b      	ldr	r3, [r3, #0]
 8005086:	681c      	ldr	r4, [r3, #0]
 8005088:	fab4 f484 	clz	r4, r4
 800508c:	0964      	lsrs	r4, r4, #5
 800508e:	6830      	ldr	r0, [r6, #0]
 8005090:	4622      	mov	r2, r4
 8005092:	eba8 0109 	sub.w	r1, r8, r9
 8005096:	f7ff f88d 	bl	80041b4 <vQueueWaitForMessageRestricted>
 800509a:	f7ff fb83 	bl	80047a4 <xTaskResumeAll>
 800509e:	2800      	cmp	r0, #0
 80050a0:	d1d2      	bne.n	8005048 <prvTimerTask+0x94>
 80050a2:	f04f 23e0 	mov.w	r3, #3758153728	; 0xe000e000
 80050a6:	f04f 5280 	mov.w	r2, #268435456	; 0x10000000
 80050aa:	f8c3 2d04 	str.w	r2, [r3, #3332]	; 0xd04
 80050ae:	f3bf 8f4f 	dsb	sy
 80050b2:	f3bf 8f6f 	isb	sy
 80050b6:	e7c7      	b.n	8005048 <prvTimerTask+0x94>
 80050b8:	f7ff fb74 	bl	80047a4 <xTaskResumeAll>
 80050bc:	e7c4      	b.n	8005048 <prvTimerTask+0x94>
 80050be:	9b05      	ldr	r3, [sp, #20]
 80050c0:	9907      	ldr	r1, [sp, #28]
 80050c2:	4798      	blx	r3
 80050c4:	9b04      	ldr	r3, [sp, #16]
 80050c6:	2b00      	cmp	r3, #0
 80050c8:	dbbe      	blt.n	8005048 <prvTimerTask+0x94>
 80050ca:	e7c8      	b.n	800505e <prvTimerTask+0xaa>
 80050cc:	1d20      	adds	r0, r4, #4
 80050ce:	f7fe fd80 	bl	8003bd2 <uxListRemove>
 80050d2:	e7c8      	b.n	8005066 <prvTimerTask+0xb2>
 80050d4:	f894 3028 	ldrb.w	r3, [r4, #40]	; 0x28
 80050d8:	69a1      	ldr	r1, [r4, #24]
 80050da:	f043 0301 	orr.w	r3, r3, #1
 80050de:	f884 3028 	strb.w	r3, [r4, #40]	; 0x28
 80050e2:	9b05      	ldr	r3, [sp, #20]
 80050e4:	4620      	mov	r0, r4
 80050e6:	4419      	add	r1, r3
 80050e8:	f7ff fe92 	bl	8004e10 <prvInsertTimerInActiveList>
 80050ec:	2800      	cmp	r0, #0
 80050ee:	d0ab      	beq.n	8005048 <prvTimerTask+0x94>
 80050f0:	6a23      	ldr	r3, [r4, #32]
 80050f2:	4620      	mov	r0, r4
 80050f4:	4798      	blx	r3
 80050f6:	f894 3028 	ldrb.w	r3, [r4, #40]	; 0x28
 80050fa:	0759      	lsls	r1, r3, #29
 80050fc:	d5a4      	bpl.n	8005048 <prvTimerTask+0x94>
 80050fe:	69a2      	ldr	r2, [r4, #24]
 8005100:	9905      	ldr	r1, [sp, #20]
 8005102:	2300      	movs	r3, #0
 8005104:	440a      	add	r2, r1
 8005106:	9300      	str	r3, [sp, #0]
 8005108:	4619      	mov	r1, r3
 800510a:	4620      	mov	r0, r4
 800510c:	f7ff fed0 	bl	8004eb0 <xTimerGenericCommand>
 8005110:	2800      	cmp	r0, #0
 8005112:	d199      	bne.n	8005048 <prvTimerTask+0x94>
 8005114:	f04f 0350 	mov.w	r3, #80	; 0x50
 8005118:	f383 8811 	msr	BASEPRI, r3
 800511c:	f3bf 8f6f 	isb	sy
 8005120:	f3bf 8f4f 	dsb	sy
 8005124:	e7fe      	b.n	8005124 <prvTimerTask+0x170>
 8005126:	f894 3028 	ldrb.w	r3, [r4, #40]	; 0x28
 800512a:	f023 0301 	bic.w	r3, r3, #1
 800512e:	f884 3028 	strb.w	r3, [r4, #40]	; 0x28
 8005132:	e789      	b.n	8005048 <prvTimerTask+0x94>
 8005134:	f894 3028 	ldrb.w	r3, [r4, #40]	; 0x28
 8005138:	f043 0301 	orr.w	r3, r3, #1
 800513c:	f884 3028 	strb.w	r3, [r4, #40]	; 0x28
 8005140:	9905      	ldr	r1, [sp, #20]
 8005142:	61a1      	str	r1, [r4, #24]
 8005144:	b941      	cbnz	r1, 8005158 <prvTimerTask+0x1a4>
 8005146:	f04f 0350 	mov.w	r3, #80	; 0x50
 800514a:	f383 8811 	msr	BASEPRI, r3
 800514e:	f3bf 8f6f 	isb	sy
 8005152:	f3bf 8f4f 	dsb	sy
 8005156:	e7fe      	b.n	8005156 <prvTimerTask+0x1a2>
 8005158:	4603      	mov	r3, r0
 800515a:	4401      	add	r1, r0
 800515c:	4620      	mov	r0, r4
 800515e:	f7ff fe57 	bl	8004e10 <prvInsertTimerInActiveList>
 8005162:	e771      	b.n	8005048 <prvTimerTask+0x94>
 8005164:	f894 3028 	ldrb.w	r3, [r4, #40]	; 0x28
 8005168:	079a      	lsls	r2, r3, #30
 800516a:	d4de      	bmi.n	800512a <prvTimerTask+0x176>
 800516c:	4620      	mov	r0, r4
 800516e:	f000 fa71 	bl	8005654 <vPortFree>
 8005172:	e769      	b.n	8005048 <prvTimerTask+0x94>
 8005174:	20001048 	.word	0x20001048
 8005178:	2000116c 	.word	0x2000116c
 800517c:	2000104c 	.word	0x2000104c

08005180 <prvPortStartFirstTask>:
 8005180:	4808      	ldr	r0, [pc, #32]	; (80051a4 <prvPortStartFirstTask+0x24>)
 8005182:	6800      	ldr	r0, [r0, #0]
 8005184:	6800      	ldr	r0, [r0, #0]
 8005186:	f380 8808 	msr	MSP, r0
 800518a:	f04f 0000 	mov.w	r0, #0
 800518e:	f380 8814 	msr	CONTROL, r0
 8005192:	b662      	cpsie	i
 8005194:	b661      	cpsie	f
 8005196:	f3bf 8f4f 	dsb	sy
 800519a:	f3bf 8f6f 	isb	sy
 800519e:	df00      	svc	0
 80051a0:	bf00      	nop
 80051a2:	0000      	.short	0x0000
 80051a4:	e000ed08 	.word	0xe000ed08

080051a8 <vPortEnableVFP>:
 80051a8:	f8df 000c 	ldr.w	r0, [pc, #12]	; 80051b8 <vPortEnableVFP+0x10>
 80051ac:	6801      	ldr	r1, [r0, #0]
 80051ae:	f441 0170 	orr.w	r1, r1, #15728640	; 0xf00000
 80051b2:	6001      	str	r1, [r0, #0]
 80051b4:	4770      	bx	lr
 80051b6:	0000      	.short	0x0000
 80051b8:	e000ed88 	.word	0xe000ed88

080051bc <prvTaskExitError>:
 80051bc:	b082      	sub	sp, #8
 80051be:	2300      	movs	r3, #0
 80051c0:	9301      	str	r3, [sp, #4]
 80051c2:	4b0d      	ldr	r3, [pc, #52]	; (80051f8 <prvTaskExitError+0x3c>)
 80051c4:	681b      	ldr	r3, [r3, #0]
 80051c6:	3301      	adds	r3, #1
 80051c8:	d008      	beq.n	80051dc <prvTaskExitError+0x20>
 80051ca:	f04f 0350 	mov.w	r3, #80	; 0x50
 80051ce:	f383 8811 	msr	BASEPRI, r3
 80051d2:	f3bf 8f6f 	isb	sy
 80051d6:	f3bf 8f4f 	dsb	sy
 80051da:	e7fe      	b.n	80051da <prvTaskExitError+0x1e>
 80051dc:	f04f 0350 	mov.w	r3, #80	; 0x50
 80051e0:	f383 8811 	msr	BASEPRI, r3
 80051e4:	f3bf 8f6f 	isb	sy
 80051e8:	f3bf 8f4f 	dsb	sy
 80051ec:	9b01      	ldr	r3, [sp, #4]
 80051ee:	2b00      	cmp	r3, #0
 80051f0:	d0fc      	beq.n	80051ec <prvTaskExitError+0x30>
 80051f2:	b002      	add	sp, #8
 80051f4:	4770      	bx	lr
 80051f6:	bf00      	nop
 80051f8:	2000000c 	.word	0x2000000c

080051fc <pxPortInitialiseStack>:
 80051fc:	f04f 7380 	mov.w	r3, #16777216	; 0x1000000
 8005200:	f840 3c04 	str.w	r3, [r0, #-4]
 8005204:	4b07      	ldr	r3, [pc, #28]	; (8005224 <pxPortInitialiseStack+0x28>)
 8005206:	f840 3c0c 	str.w	r3, [r0, #-12]
 800520a:	f021 0101 	bic.w	r1, r1, #1
 800520e:	f06f 0302 	mvn.w	r3, #2
 8005212:	f840 1c08 	str.w	r1, [r0, #-8]
 8005216:	f840 2c20 	str.w	r2, [r0, #-32]
 800521a:	f840 3c24 	str.w	r3, [r0, #-36]
 800521e:	3844      	subs	r0, #68	; 0x44
 8005220:	4770      	bx	lr
 8005222:	bf00      	nop
 8005224:	080051bd 	.word	0x080051bd
	...

08005230 <SVC_Handler>:
 8005230:	4b07      	ldr	r3, [pc, #28]	; (8005250 <pxCurrentTCBConst2>)
 8005232:	6819      	ldr	r1, [r3, #0]
 8005234:	6808      	ldr	r0, [r1, #0]
 8005236:	e8b0 4ff0 	ldmia.w	r0!, {r4, r5, r6, r7, r8, r9, sl, fp, lr}
 800523a:	f380 8809 	msr	PSP, r0
 800523e:	f3bf 8f6f 	isb	sy
 8005242:	f04f 0000 	mov.w	r0, #0
 8005246:	f380 8811 	msr	BASEPRI, r0
 800524a:	4770      	bx	lr
 800524c:	f3af 8000 	nop.w

08005250 <pxCurrentTCBConst2>:
 8005250:	20000b4c 	.word	0x20000b4c

08005254 <vPortEnterCritical>:
 8005254:	f04f 0350 	mov.w	r3, #80	; 0x50
 8005258:	f383 8811 	msr	BASEPRI, r3
 800525c:	f3bf 8f6f 	isb	sy
 8005260:	f3bf 8f4f 	dsb	sy
 8005264:	4a0a      	ldr	r2, [pc, #40]	; (8005290 <vPortEnterCritical+0x3c>)
 8005266:	6813      	ldr	r3, [r2, #0]
 8005268:	3301      	adds	r3, #1
 800526a:	2b01      	cmp	r3, #1
 800526c:	6013      	str	r3, [r2, #0]
 800526e:	d10e      	bne.n	800528e <vPortEnterCritical+0x3a>
 8005270:	f04f 23e0 	mov.w	r3, #3758153728	; 0xe000e000
 8005274:	f8d3 3d04 	ldr.w	r3, [r3, #3332]	; 0xd04
 8005278:	b2db      	uxtb	r3, r3
 800527a:	b143      	cbz	r3, 800528e <vPortEnterCritical+0x3a>
 800527c:	f04f 0350 	mov.w	r3, #80	; 0x50
 8005280:	f383 8811 	msr	BASEPRI, r3
 8005284:	f3bf 8f6f 	isb	sy
 8005288:	f3bf 8f4f 	dsb	sy
 800528c:	e7fe      	b.n	800528c <vPortEnterCritical+0x38>
 800528e:	4770      	bx	lr
 8005290:	2000000c 	.word	0x2000000c

08005294 <vPortExitCritical>:
 8005294:	4a08      	ldr	r2, [pc, #32]	; (80052b8 <vPortExitCritical+0x24>)
 8005296:	6813      	ldr	r3, [r2, #0]
 8005298:	b943      	cbnz	r3, 80052ac <vPortExitCritical+0x18>
 800529a:	f04f 0350 	mov.w	r3, #80	; 0x50
 800529e:	f383 8811 	msr	BASEPRI, r3
 80052a2:	f3bf 8f6f 	isb	sy
 80052a6:	f3bf 8f4f 	dsb	sy
 80052aa:	e7fe      	b.n	80052aa <vPortExitCritical+0x16>
 80052ac:	3b01      	subs	r3, #1
 80052ae:	6013      	str	r3, [r2, #0]
 80052b0:	b90b      	cbnz	r3, 80052b6 <vPortExitCritical+0x22>
 80052b2:	f383 8811 	msr	BASEPRI, r3
 80052b6:	4770      	bx	lr
 80052b8:	2000000c 	.word	0x2000000c
 80052bc:	00000000 	.word	0x00000000

080052c0 <PendSV_Handler>:
 80052c0:	f3ef 8009 	mrs	r0, PSP
 80052c4:	f3bf 8f6f 	isb	sy
 80052c8:	4b15      	ldr	r3, [pc, #84]	; (8005320 <pxCurrentTCBConst>)
 80052ca:	681a      	ldr	r2, [r3, #0]
 80052cc:	f01e 0f10 	tst.w	lr, #16
 80052d0:	bf08      	it	eq
 80052d2:	ed20 8a10 	vstmdbeq	r0!, {s16-s31}
 80052d6:	e920 4ff0 	stmdb	r0!, {r4, r5, r6, r7, r8, r9, sl, fp, lr}
 80052da:	6010      	str	r0, [r2, #0]
 80052dc:	e92d 0009 	stmdb	sp!, {r0, r3}
 80052e0:	f04f 0050 	mov.w	r0, #80	; 0x50
 80052e4:	f380 8811 	msr	BASEPRI, r0
 80052e8:	f3bf 8f4f 	dsb	sy
 80052ec:	f3bf 8f6f 	isb	sy
 80052f0:	f7ff faf0 	bl	80048d4 <vTaskSwitchContext>
 80052f4:	f04f 0000 	mov.w	r0, #0
 80052f8:	f380 8811 	msr	BASEPRI, r0
 80052fc:	bc09      	pop	{r0, r3}
 80052fe:	6819      	ldr	r1, [r3, #0]
 8005300:	6808      	ldr	r0, [r1, #0]
 8005302:	e8b0 4ff0 	ldmia.w	r0!, {r4, r5, r6, r7, r8, r9, sl, fp, lr}
 8005306:	f01e 0f10 	tst.w	lr, #16
 800530a:	bf08      	it	eq
 800530c:	ecb0 8a10 	vldmiaeq	r0!, {s16-s31}
 8005310:	f380 8809 	msr	PSP, r0
 8005314:	f3bf 8f6f 	isb	sy
 8005318:	4770      	bx	lr
 800531a:	bf00      	nop
 800531c:	f3af 8000 	nop.w

08005320 <pxCurrentTCBConst>:
 8005320:	20000b4c 	.word	0x20000b4c

08005324 <xPortSysTickHandler>:
 8005324:	b508      	push	{r3, lr}
 8005326:	f04f 0350 	mov.w	r3, #80	; 0x50
 800532a:	f383 8811 	msr	BASEPRI, r3
 800532e:	f3bf 8f6f 	isb	sy
 8005332:	f3bf 8f4f 	dsb	sy
 8005336:	f7ff f99f 	bl	8004678 <xTaskIncrementTick>
 800533a:	b128      	cbz	r0, 8005348 <xPortSysTickHandler+0x24>
 800533c:	f04f 23e0 	mov.w	r3, #3758153728	; 0xe000e000
 8005340:	f04f 5280 	mov.w	r2, #268435456	; 0x10000000
 8005344:	f8c3 2d04 	str.w	r2, [r3, #3332]	; 0xd04
 8005348:	2300      	movs	r3, #0
 800534a:	f383 8811 	msr	BASEPRI, r3
 800534e:	bd08      	pop	{r3, pc}

08005350 <vPortSetupTimerInterrupt>:
 8005350:	f04f 22e0 	mov.w	r2, #3758153728	; 0xe000e000
 8005354:	2300      	movs	r3, #0
 8005356:	6113      	str	r3, [r2, #16]
 8005358:	6193      	str	r3, [r2, #24]
 800535a:	4b05      	ldr	r3, [pc, #20]	; (8005370 <vPortSetupTimerInterrupt+0x20>)
 800535c:	f44f 717a 	mov.w	r1, #1000	; 0x3e8
 8005360:	681b      	ldr	r3, [r3, #0]
 8005362:	fbb3 f3f1 	udiv	r3, r3, r1
 8005366:	3b01      	subs	r3, #1
 8005368:	6153      	str	r3, [r2, #20]
 800536a:	2307      	movs	r3, #7
 800536c:	6113      	str	r3, [r2, #16]
 800536e:	4770      	bx	lr
 8005370:	20000000 	.word	0x20000000

08005374 <xPortStartScheduler>:
 8005374:	f04f 23e0 	mov.w	r3, #3758153728	; 0xe000e000
 8005378:	b537      	push	{r0, r1, r2, r4, r5, lr}
 800537a:	f8d3 1d00 	ldr.w	r1, [r3, #3328]	; 0xd00
 800537e:	4a3a      	ldr	r2, [pc, #232]	; (8005468 <xPortStartScheduler+0xf4>)
 8005380:	4291      	cmp	r1, r2
 8005382:	d108      	bne.n	8005396 <xPortStartScheduler+0x22>
 8005384:	f04f 0350 	mov.w	r3, #80	; 0x50
 8005388:	f383 8811 	msr	BASEPRI, r3
 800538c:	f3bf 8f6f 	isb	sy
 8005390:	f3bf 8f4f 	dsb	sy
 8005394:	e7fe      	b.n	8005394 <xPortStartScheduler+0x20>
 8005396:	f8d3 2d00 	ldr.w	r2, [r3, #3328]	; 0xd00
 800539a:	4b34      	ldr	r3, [pc, #208]	; (800546c <xPortStartScheduler+0xf8>)
 800539c:	429a      	cmp	r2, r3
 800539e:	d108      	bne.n	80053b2 <xPortStartScheduler+0x3e>
 80053a0:	f04f 0350 	mov.w	r3, #80	; 0x50
 80053a4:	f383 8811 	msr	BASEPRI, r3
 80053a8:	f3bf 8f6f 	isb	sy
 80053ac:	f3bf 8f4f 	dsb	sy
 80053b0:	e7fe      	b.n	80053b0 <xPortStartScheduler+0x3c>
 80053b2:	4b2f      	ldr	r3, [pc, #188]	; (8005470 <xPortStartScheduler+0xfc>)
 80053b4:	781a      	ldrb	r2, [r3, #0]
 80053b6:	b2d2      	uxtb	r2, r2
 80053b8:	9201      	str	r2, [sp, #4]
 80053ba:	22ff      	movs	r2, #255	; 0xff
 80053bc:	701a      	strb	r2, [r3, #0]
 80053be:	781b      	ldrb	r3, [r3, #0]
 80053c0:	4a2c      	ldr	r2, [pc, #176]	; (8005474 <xPortStartScheduler+0x100>)
 80053c2:	b2db      	uxtb	r3, r3
 80053c4:	f88d 3003 	strb.w	r3, [sp, #3]
 80053c8:	f89d 3003 	ldrb.w	r3, [sp, #3]
 80053cc:	f003 0350 	and.w	r3, r3, #80	; 0x50
 80053d0:	7013      	strb	r3, [r2, #0]
 80053d2:	4a29      	ldr	r2, [pc, #164]	; (8005478 <xPortStartScheduler+0x104>)
 80053d4:	2307      	movs	r3, #7
 80053d6:	6013      	str	r3, [r2, #0]
 80053d8:	2100      	movs	r1, #0
 80053da:	f89d 0003 	ldrb.w	r0, [sp, #3]
 80053de:	0600      	lsls	r0, r0, #24
 80053e0:	f103 34ff 	add.w	r4, r3, #4294967295	; 0xffffffff
 80053e4:	d40c      	bmi.n	8005400 <xPortStartScheduler+0x8c>
 80053e6:	b111      	cbz	r1, 80053ee <xPortStartScheduler+0x7a>
 80053e8:	2b03      	cmp	r3, #3
 80053ea:	6013      	str	r3, [r2, #0]
 80053ec:	d011      	beq.n	8005412 <xPortStartScheduler+0x9e>
 80053ee:	f04f 0350 	mov.w	r3, #80	; 0x50
 80053f2:	f383 8811 	msr	BASEPRI, r3
 80053f6:	f3bf 8f6f 	isb	sy
 80053fa:	f3bf 8f4f 	dsb	sy
 80053fe:	e7fe      	b.n	80053fe <xPortStartScheduler+0x8a>
 8005400:	f89d 3003 	ldrb.w	r3, [sp, #3]
 8005404:	005b      	lsls	r3, r3, #1
 8005406:	b2db      	uxtb	r3, r3
 8005408:	f88d 3003 	strb.w	r3, [sp, #3]
 800540c:	2101      	movs	r1, #1
 800540e:	4623      	mov	r3, r4
 8005410:	e7e3      	b.n	80053da <xPortStartScheduler+0x66>
 8005412:	f44f 7340 	mov.w	r3, #768	; 0x300
 8005416:	6013      	str	r3, [r2, #0]
 8005418:	9b01      	ldr	r3, [sp, #4]
 800541a:	4a15      	ldr	r2, [pc, #84]	; (8005470 <xPortStartScheduler+0xfc>)
 800541c:	f04f 24e0 	mov.w	r4, #3758153728	; 0xe000e000
 8005420:	b2db      	uxtb	r3, r3
 8005422:	7013      	strb	r3, [r2, #0]
 8005424:	f8d4 3d20 	ldr.w	r3, [r4, #3360]	; 0xd20
 8005428:	f443 0370 	orr.w	r3, r3, #15728640	; 0xf00000
 800542c:	f8c4 3d20 	str.w	r3, [r4, #3360]	; 0xd20
 8005430:	f8d4 3d20 	ldr.w	r3, [r4, #3360]	; 0xd20
 8005434:	f043 4370 	orr.w	r3, r3, #4026531840	; 0xf0000000
 8005438:	f8c4 3d20 	str.w	r3, [r4, #3360]	; 0xd20
 800543c:	f7ff ff88 	bl	8005350 <vPortSetupTimerInterrupt>
 8005440:	4b0e      	ldr	r3, [pc, #56]	; (800547c <xPortStartScheduler+0x108>)
 8005442:	2500      	movs	r5, #0
 8005444:	601d      	str	r5, [r3, #0]
 8005446:	f7ff feaf 	bl	80051a8 <vPortEnableVFP>
 800544a:	f8d4 3f34 	ldr.w	r3, [r4, #3892]	; 0xf34
 800544e:	f043 4340 	orr.w	r3, r3, #3221225472	; 0xc0000000
 8005452:	f8c4 3f34 	str.w	r3, [r4, #3892]	; 0xf34
 8005456:	f7ff fe93 	bl	8005180 <prvPortStartFirstTask>
 800545a:	f7ff fa3b 	bl	80048d4 <vTaskSwitchContext>
 800545e:	f7ff fead 	bl	80051bc <prvTaskExitError>
 8005462:	4628      	mov	r0, r5
 8005464:	b003      	add	sp, #12
 8005466:	bd30      	pop	{r4, r5, pc}
 8005468:	410fc271 	.word	0x410fc271
 800546c:	410fc270 	.word	0x410fc270
 8005470:	e000e400 	.word	0xe000e400
 8005474:	20001174 	.word	0x20001174
 8005478:	20001178 	.word	0x20001178
 800547c:	2000000c 	.word	0x2000000c

08005480 <vPortValidateInterruptPriority>:
 8005480:	f3ef 8305 	mrs	r3, IPSR
 8005484:	2b0f      	cmp	r3, #15
 8005486:	d90e      	bls.n	80054a6 <vPortValidateInterruptPriority+0x26>
 8005488:	4a11      	ldr	r2, [pc, #68]	; (80054d0 <vPortValidateInterruptPriority+0x50>)
 800548a:	5c9b      	ldrb	r3, [r3, r2]
 800548c:	4a11      	ldr	r2, [pc, #68]	; (80054d4 <vPortValidateInterruptPriority+0x54>)
 800548e:	7812      	ldrb	r2, [r2, #0]
 8005490:	429a      	cmp	r2, r3
 8005492:	d908      	bls.n	80054a6 <vPortValidateInterruptPriority+0x26>
 8005494:	f04f 0350 	mov.w	r3, #80	; 0x50
 8005498:	f383 8811 	msr	BASEPRI, r3
 800549c:	f3bf 8f6f 	isb	sy
 80054a0:	f3bf 8f4f 	dsb	sy
 80054a4:	e7fe      	b.n	80054a4 <vPortValidateInterruptPriority+0x24>
 80054a6:	f04f 23e0 	mov.w	r3, #3758153728	; 0xe000e000
 80054aa:	4a0b      	ldr	r2, [pc, #44]	; (80054d8 <vPortValidateInterruptPriority+0x58>)
 80054ac:	f8d3 3d0c 	ldr.w	r3, [r3, #3340]	; 0xd0c
 80054b0:	6812      	ldr	r2, [r2, #0]
 80054b2:	f403 63e0 	and.w	r3, r3, #1792	; 0x700
 80054b6:	4293      	cmp	r3, r2
 80054b8:	d908      	bls.n	80054cc <vPortValidateInterruptPriority+0x4c>
 80054ba:	f04f 0350 	mov.w	r3, #80	; 0x50
 80054be:	f383 8811 	msr	BASEPRI, r3
 80054c2:	f3bf 8f6f 	isb	sy
 80054c6:	f3bf 8f4f 	dsb	sy
 80054ca:	e7fe      	b.n	80054ca <vPortValidateInterruptPriority+0x4a>
 80054cc:	4770      	bx	lr
 80054ce:	bf00      	nop
 80054d0:	e000e3f0 	.word	0xe000e3f0
 80054d4:	20001174 	.word	0x20001174
 80054d8:	20001178 	.word	0x20001178

080054dc <prvInsertBlockIntoFreeList>:
 80054dc:	b510      	push	{r4, lr}
 80054de:	4b0f      	ldr	r3, [pc, #60]	; (800551c <prvInsertBlockIntoFreeList+0x40>)
 80054e0:	461a      	mov	r2, r3
 80054e2:	681b      	ldr	r3, [r3, #0]
 80054e4:	4283      	cmp	r3, r0
 80054e6:	d3fb      	bcc.n	80054e0 <prvInsertBlockIntoFreeList+0x4>
 80054e8:	6854      	ldr	r4, [r2, #4]
 80054ea:	1911      	adds	r1, r2, r4
 80054ec:	4288      	cmp	r0, r1
 80054ee:	bf01      	itttt	eq
 80054f0:	6841      	ldreq	r1, [r0, #4]
 80054f2:	4610      	moveq	r0, r2
 80054f4:	1909      	addeq	r1, r1, r4
 80054f6:	6051      	streq	r1, [r2, #4]
 80054f8:	6844      	ldr	r4, [r0, #4]
 80054fa:	1901      	adds	r1, r0, r4
 80054fc:	428b      	cmp	r3, r1
 80054fe:	d107      	bne.n	8005510 <prvInsertBlockIntoFreeList+0x34>
 8005500:	4907      	ldr	r1, [pc, #28]	; (8005520 <prvInsertBlockIntoFreeList+0x44>)
 8005502:	6809      	ldr	r1, [r1, #0]
 8005504:	428b      	cmp	r3, r1
 8005506:	bf1f      	itttt	ne
 8005508:	6859      	ldrne	r1, [r3, #4]
 800550a:	681b      	ldrne	r3, [r3, #0]
 800550c:	1909      	addne	r1, r1, r4
 800550e:	6041      	strne	r1, [r0, #4]
 8005510:	4290      	cmp	r0, r2
 8005512:	6003      	str	r3, [r0, #0]
 8005514:	bf18      	it	ne
 8005516:	6010      	strne	r0, [r2, #0]
 8005518:	bd10      	pop	{r4, pc}
 800551a:	bf00      	nop
 800551c:	20002d94 	.word	0x20002d94
 8005520:	2000117c 	.word	0x2000117c

08005524 <pvPortMalloc>:
 8005524:	e92d 41f0 	stmdb	sp!, {r4, r5, r6, r7, r8, lr}
 8005528:	4604      	mov	r4, r0
 800552a:	f7ff f897 	bl	800465c <vTaskSuspendAll>
 800552e:	4842      	ldr	r0, [pc, #264]	; (8005638 <pvPortMalloc+0x114>)
 8005530:	4d42      	ldr	r5, [pc, #264]	; (800563c <pvPortMalloc+0x118>)
 8005532:	6803      	ldr	r3, [r0, #0]
 8005534:	bb0b      	cbnz	r3, 800557a <pvPortMalloc+0x56>
 8005536:	4942      	ldr	r1, [pc, #264]	; (8005640 <pvPortMalloc+0x11c>)
 8005538:	074e      	lsls	r6, r1, #29
 800553a:	bf1f      	itttt	ne
 800553c:	1dcb      	addne	r3, r1, #7
 800553e:	f023 0307 	bicne.w	r3, r3, #7
 8005542:	f501 52e0 	addne.w	r2, r1, #7168	; 0x1c00
 8005546:	1ad2      	subne	r2, r2, r3
 8005548:	bf14      	ite	ne
 800554a:	4619      	movne	r1, r3
 800554c:	f44f 52e0 	moveq.w	r2, #7168	; 0x1c00
 8005550:	440a      	add	r2, r1
 8005552:	4e3c      	ldr	r6, [pc, #240]	; (8005644 <pvPortMalloc+0x120>)
 8005554:	3a08      	subs	r2, #8
 8005556:	f022 0207 	bic.w	r2, r2, #7
 800555a:	2300      	movs	r3, #0
 800555c:	6073      	str	r3, [r6, #4]
 800555e:	6031      	str	r1, [r6, #0]
 8005560:	e9c2 3300 	strd	r3, r3, [r2]
 8005564:	1a53      	subs	r3, r2, r1
 8005566:	e9c1 2300 	strd	r2, r3, [r1]
 800556a:	6002      	str	r2, [r0, #0]
 800556c:	4a36      	ldr	r2, [pc, #216]	; (8005648 <pvPortMalloc+0x124>)
 800556e:	6013      	str	r3, [r2, #0]
 8005570:	4a36      	ldr	r2, [pc, #216]	; (800564c <pvPortMalloc+0x128>)
 8005572:	6013      	str	r3, [r2, #0]
 8005574:	f04f 4300 	mov.w	r3, #2147483648	; 0x80000000
 8005578:	602b      	str	r3, [r5, #0]
 800557a:	682f      	ldr	r7, [r5, #0]
 800557c:	4227      	tst	r7, r4
 800557e:	d155      	bne.n	800562c <pvPortMalloc+0x108>
 8005580:	2c00      	cmp	r4, #0
 8005582:	d046      	beq.n	8005612 <pvPortMalloc+0xee>
 8005584:	f104 0308 	add.w	r3, r4, #8
 8005588:	0761      	lsls	r1, r4, #29
 800558a:	bf1c      	itt	ne
 800558c:	f023 0307 	bicne.w	r3, r3, #7
 8005590:	3308      	addne	r3, #8
 8005592:	2b00      	cmp	r3, #0
 8005594:	d04a      	beq.n	800562c <pvPortMalloc+0x108>
 8005596:	4c2d      	ldr	r4, [pc, #180]	; (800564c <pvPortMalloc+0x128>)
 8005598:	6826      	ldr	r6, [r4, #0]
 800559a:	429e      	cmp	r6, r3
 800559c:	d346      	bcc.n	800562c <pvPortMalloc+0x108>
 800559e:	4a29      	ldr	r2, [pc, #164]	; (8005644 <pvPortMalloc+0x120>)
 80055a0:	6815      	ldr	r5, [r2, #0]
 80055a2:	6869      	ldr	r1, [r5, #4]
 80055a4:	4299      	cmp	r1, r3
 80055a6:	d204      	bcs.n	80055b2 <pvPortMalloc+0x8e>
 80055a8:	f8d5 c000 	ldr.w	ip, [r5]
 80055ac:	f1bc 0f00 	cmp.w	ip, #0
 80055b0:	d115      	bne.n	80055de <pvPortMalloc+0xba>
 80055b2:	6800      	ldr	r0, [r0, #0]
 80055b4:	42a8      	cmp	r0, r5
 80055b6:	d039      	beq.n	800562c <pvPortMalloc+0x108>
 80055b8:	1ac9      	subs	r1, r1, r3
 80055ba:	6828      	ldr	r0, [r5, #0]
 80055bc:	f8d2 8000 	ldr.w	r8, [r2]
 80055c0:	6010      	str	r0, [r2, #0]
 80055c2:	2910      	cmp	r1, #16
 80055c4:	d912      	bls.n	80055ec <pvPortMalloc+0xc8>
 80055c6:	18e8      	adds	r0, r5, r3
 80055c8:	0742      	lsls	r2, r0, #29
 80055ca:	d00b      	beq.n	80055e4 <pvPortMalloc+0xc0>
 80055cc:	f04f 0350 	mov.w	r3, #80	; 0x50
 80055d0:	f383 8811 	msr	BASEPRI, r3
 80055d4:	f3bf 8f6f 	isb	sy
 80055d8:	f3bf 8f4f 	dsb	sy
 80055dc:	e7fe      	b.n	80055dc <pvPortMalloc+0xb8>
 80055de:	462a      	mov	r2, r5
 80055e0:	4665      	mov	r5, ip
 80055e2:	e7de      	b.n	80055a2 <pvPortMalloc+0x7e>
 80055e4:	6041      	str	r1, [r0, #4]
 80055e6:	606b      	str	r3, [r5, #4]
 80055e8:	f7ff ff78 	bl	80054dc <prvInsertBlockIntoFreeList>
 80055ec:	686b      	ldr	r3, [r5, #4]
 80055ee:	4916      	ldr	r1, [pc, #88]	; (8005648 <pvPortMalloc+0x124>)
 80055f0:	4a17      	ldr	r2, [pc, #92]	; (8005650 <pvPortMalloc+0x12c>)
 80055f2:	6808      	ldr	r0, [r1, #0]
 80055f4:	1af6      	subs	r6, r6, r3
 80055f6:	431f      	orrs	r7, r3
 80055f8:	2300      	movs	r3, #0
 80055fa:	602b      	str	r3, [r5, #0]
 80055fc:	6813      	ldr	r3, [r2, #0]
 80055fe:	6026      	str	r6, [r4, #0]
 8005600:	4286      	cmp	r6, r0
 8005602:	f103 0301 	add.w	r3, r3, #1
 8005606:	bf38      	it	cc
 8005608:	600e      	strcc	r6, [r1, #0]
 800560a:	f108 0408 	add.w	r4, r8, #8
 800560e:	606f      	str	r7, [r5, #4]
 8005610:	6013      	str	r3, [r2, #0]
 8005612:	f7ff f8c7 	bl	80047a4 <xTaskResumeAll>
 8005616:	0763      	lsls	r3, r4, #29
 8005618:	d00a      	beq.n	8005630 <pvPortMalloc+0x10c>
 800561a:	f04f 0350 	mov.w	r3, #80	; 0x50
 800561e:	f383 8811 	msr	BASEPRI, r3
 8005622:	f3bf 8f6f 	isb	sy
 8005626:	f3bf 8f4f 	dsb	sy
 800562a:	e7fe      	b.n	800562a <pvPortMalloc+0x106>
 800562c:	2400      	movs	r4, #0
 800562e:	e7f0      	b.n	8005612 <pvPortMalloc+0xee>
 8005630:	4620      	mov	r0, r4
 8005632:	e8bd 81f0 	ldmia.w	sp!, {r4, r5, r6, r7, r8, pc}
 8005636:	bf00      	nop
 8005638:	2000117c 	.word	0x2000117c
 800563c:	20002d80 	.word	0x20002d80
 8005640:	20001180 	.word	0x20001180
 8005644:	20002d94 	.word	0x20002d94
 8005648:	20002d88 	.word	0x20002d88
 800564c:	20002d84 	.word	0x20002d84
 8005650:	20002d8c 	.word	0x20002d8c

08005654 <vPortFree>:
 8005654:	b510      	push	{r4, lr}
 8005656:	4604      	mov	r4, r0
 8005658:	b390      	cbz	r0, 80056c0 <vPortFree+0x6c>
 800565a:	4a1a      	ldr	r2, [pc, #104]	; (80056c4 <vPortFree+0x70>)
 800565c:	f850 3c04 	ldr.w	r3, [r0, #-4]
 8005660:	6812      	ldr	r2, [r2, #0]
 8005662:	4213      	tst	r3, r2
 8005664:	d108      	bne.n	8005678 <vPortFree+0x24>
 8005666:	f04f 0350 	mov.w	r3, #80	; 0x50
 800566a:	f383 8811 	msr	BASEPRI, r3
 800566e:	f3bf 8f6f 	isb	sy
 8005672:	f3bf 8f4f 	dsb	sy
 8005676:	e7fe      	b.n	8005676 <vPortFree+0x22>
 8005678:	f850 1c08 	ldr.w	r1, [r0, #-8]
 800567c:	b141      	cbz	r1, 8005690 <vPortFree+0x3c>
 800567e:	f04f 0350 	mov.w	r3, #80	; 0x50
 8005682:	f383 8811 	msr	BASEPRI, r3
 8005686:	f3bf 8f6f 	isb	sy
 800568a:	f3bf 8f4f 	dsb	sy
 800568e:	e7fe      	b.n	800568e <vPortFree+0x3a>
 8005690:	ea23 0302 	bic.w	r3, r3, r2
 8005694:	f840 3c04 	str.w	r3, [r0, #-4]
 8005698:	f7fe ffe0 	bl	800465c <vTaskSuspendAll>
 800569c:	4a0a      	ldr	r2, [pc, #40]	; (80056c8 <vPortFree+0x74>)
 800569e:	f854 3c04 	ldr.w	r3, [r4, #-4]
 80056a2:	6811      	ldr	r1, [r2, #0]
 80056a4:	f1a4 0008 	sub.w	r0, r4, #8
 80056a8:	440b      	add	r3, r1
 80056aa:	6013      	str	r3, [r2, #0]
 80056ac:	f7ff ff16 	bl	80054dc <prvInsertBlockIntoFreeList>
 80056b0:	4a06      	ldr	r2, [pc, #24]	; (80056cc <vPortFree+0x78>)
 80056b2:	6813      	ldr	r3, [r2, #0]
 80056b4:	e8bd 4010 	ldmia.w	sp!, {r4, lr}
 80056b8:	3301      	adds	r3, #1
 80056ba:	6013      	str	r3, [r2, #0]
 80056bc:	f7ff b872 	b.w	80047a4 <xTaskResumeAll>
 80056c0:	bd10      	pop	{r4, pc}
 80056c2:	bf00      	nop
 80056c4:	20002d80 	.word	0x20002d80
 80056c8:	20002d84 	.word	0x20002d84
 80056cc:	20002d90 	.word	0x20002d90

080056d0 <__libc_init_array>:
 80056d0:	b570      	push	{r4, r5, r6, lr}
 80056d2:	4d0d      	ldr	r5, [pc, #52]	; (8005708 <__libc_init_array+0x38>)
 80056d4:	4c0d      	ldr	r4, [pc, #52]	; (800570c <__libc_init_array+0x3c>)
 80056d6:	1b64      	subs	r4, r4, r5
 80056d8:	10a4      	asrs	r4, r4, #2
 80056da:	2600      	movs	r6, #0
 80056dc:	42a6      	cmp	r6, r4
 80056de:	d109      	bne.n	80056f4 <__libc_init_array+0x24>
 80056e0:	4d0b      	ldr	r5, [pc, #44]	; (8005710 <__libc_init_array+0x40>)
 80056e2:	4c0c      	ldr	r4, [pc, #48]	; (8005714 <__libc_init_array+0x44>)
 80056e4:	f000 f8f2 	bl	80058cc <_init>
 80056e8:	1b64      	subs	r4, r4, r5
 80056ea:	10a4      	asrs	r4, r4, #2
 80056ec:	2600      	movs	r6, #0
 80056ee:	42a6      	cmp	r6, r4
 80056f0:	d105      	bne.n	80056fe <__libc_init_array+0x2e>
 80056f2:	bd70      	pop	{r4, r5, r6, pc}
 80056f4:	f855 3b04 	ldr.w	r3, [r5], #4
 80056f8:	4798      	blx	r3
 80056fa:	3601      	adds	r6, #1
 80056fc:	e7ee      	b.n	80056dc <__libc_init_array+0xc>
 80056fe:	f855 3b04 	ldr.w	r3, [r5], #4
 8005702:	4798      	blx	r3
 8005704:	3601      	adds	r6, #1
 8005706:	e7f2      	b.n	80056ee <__libc_init_array+0x1e>
 8005708:	08005a48 	.word	0x08005a48
 800570c:	08005a48 	.word	0x08005a48
 8005710:	08005a48 	.word	0x08005a48
 8005714:	08005a4c 	.word	0x08005a4c

08005718 <__retarget_lock_acquire_recursive>:
 8005718:	4770      	bx	lr

0800571a <__retarget_lock_release_recursive>:
 800571a:	4770      	bx	lr

0800571c <memcpy>:
 800571c:	440a      	add	r2, r1
 800571e:	4291      	cmp	r1, r2
 8005720:	f100 33ff 	add.w	r3, r0, #4294967295	; 0xffffffff
 8005724:	d100      	bne.n	8005728 <memcpy+0xc>
 8005726:	4770      	bx	lr
 8005728:	b510      	push	{r4, lr}
 800572a:	f811 4b01 	ldrb.w	r4, [r1], #1
 800572e:	f803 4f01 	strb.w	r4, [r3, #1]!
 8005732:	4291      	cmp	r1, r2
 8005734:	d1f9      	bne.n	800572a <memcpy+0xe>
 8005736:	bd10      	pop	{r4, pc}

08005738 <memset>:
 8005738:	4402      	add	r2, r0
 800573a:	4603      	mov	r3, r0
 800573c:	4293      	cmp	r3, r2
 800573e:	d100      	bne.n	8005742 <memset+0xa>
 8005740:	4770      	bx	lr
 8005742:	f803 1b01 	strb.w	r1, [r3], #1
 8005746:	e7f9      	b.n	800573c <memset+0x4>

08005748 <cleanup_glue>:
 8005748:	b538      	push	{r3, r4, r5, lr}
 800574a:	460c      	mov	r4, r1
 800574c:	6809      	ldr	r1, [r1, #0]
 800574e:	4605      	mov	r5, r0
 8005750:	b109      	cbz	r1, 8005756 <cleanup_glue+0xe>
 8005752:	f7ff fff9 	bl	8005748 <cleanup_glue>
 8005756:	4621      	mov	r1, r4
 8005758:	4628      	mov	r0, r5
 800575a:	e8bd 4038 	ldmia.w	sp!, {r3, r4, r5, lr}
 800575e:	f000 b869 	b.w	8005834 <_free_r>
	...

08005764 <_reclaim_reent>:
 8005764:	4b2c      	ldr	r3, [pc, #176]	; (8005818 <_reclaim_reent+0xb4>)
 8005766:	681b      	ldr	r3, [r3, #0]
 8005768:	4283      	cmp	r3, r0
 800576a:	b570      	push	{r4, r5, r6, lr}
 800576c:	4604      	mov	r4, r0
 800576e:	d051      	beq.n	8005814 <_reclaim_reent+0xb0>
 8005770:	6a43      	ldr	r3, [r0, #36]	; 0x24
 8005772:	b143      	cbz	r3, 8005786 <_reclaim_reent+0x22>
 8005774:	68db      	ldr	r3, [r3, #12]
 8005776:	2b00      	cmp	r3, #0
 8005778:	d14a      	bne.n	8005810 <_reclaim_reent+0xac>
 800577a:	6a63      	ldr	r3, [r4, #36]	; 0x24
 800577c:	6819      	ldr	r1, [r3, #0]
 800577e:	b111      	cbz	r1, 8005786 <_reclaim_reent+0x22>
 8005780:	4620      	mov	r0, r4
 8005782:	f000 f857 	bl	8005834 <_free_r>
 8005786:	6961      	ldr	r1, [r4, #20]
 8005788:	b111      	cbz	r1, 8005790 <_reclaim_reent+0x2c>
 800578a:	4620      	mov	r0, r4
 800578c:	f000 f852 	bl	8005834 <_free_r>
 8005790:	6a61      	ldr	r1, [r4, #36]	; 0x24
 8005792:	b111      	cbz	r1, 800579a <_reclaim_reent+0x36>
 8005794:	4620      	mov	r0, r4
 8005796:	f000 f84d 	bl	8005834 <_free_r>
 800579a:	6ba1      	ldr	r1, [r4, #56]	; 0x38
 800579c:	b111      	cbz	r1, 80057a4 <_reclaim_reent+0x40>
 800579e:	4620      	mov	r0, r4
 80057a0:	f000 f848 	bl	8005834 <_free_r>
 80057a4:	6be1      	ldr	r1, [r4, #60]	; 0x3c
 80057a6:	b111      	cbz	r1, 80057ae <_reclaim_reent+0x4a>
 80057a8:	4620      	mov	r0, r4
 80057aa:	f000 f843 	bl	8005834 <_free_r>
 80057ae:	6c21      	ldr	r1, [r4, #64]	; 0x40
 80057b0:	b111      	cbz	r1, 80057b8 <_reclaim_reent+0x54>
 80057b2:	4620      	mov	r0, r4
 80057b4:	f000 f83e 	bl	8005834 <_free_r>
 80057b8:	6de1      	ldr	r1, [r4, #92]	; 0x5c
 80057ba:	b111      	cbz	r1, 80057c2 <_reclaim_reent+0x5e>
 80057bc:	4620      	mov	r0, r4
 80057be:	f000 f839 	bl	8005834 <_free_r>
 80057c2:	6da1      	ldr	r1, [r4, #88]	; 0x58
 80057c4:	b111      	cbz	r1, 80057cc <_reclaim_reent+0x68>
 80057c6:	4620      	mov	r0, r4
 80057c8:	f000 f834 	bl	8005834 <_free_r>
 80057cc:	6b61      	ldr	r1, [r4, #52]	; 0x34
 80057ce:	b111      	cbz	r1, 80057d6 <_reclaim_reent+0x72>
 80057d0:	4620      	mov	r0, r4
 80057d2:	f000 f82f 	bl	8005834 <_free_r>
 80057d6:	69a3      	ldr	r3, [r4, #24]
 80057d8:	b1e3      	cbz	r3, 8005814 <_reclaim_reent+0xb0>
 80057da:	6aa3      	ldr	r3, [r4, #40]	; 0x28
 80057dc:	4620      	mov	r0, r4
 80057de:	4798      	blx	r3
 80057e0:	6ca1      	ldr	r1, [r4, #72]	; 0x48
 80057e2:	b1b9      	cbz	r1, 8005814 <_reclaim_reent+0xb0>
 80057e4:	4620      	mov	r0, r4
 80057e6:	e8bd 4070 	ldmia.w	sp!, {r4, r5, r6, lr}
 80057ea:	f7ff bfad 	b.w	8005748 <cleanup_glue>
 80057ee:	5949      	ldr	r1, [r1, r5]
 80057f0:	b941      	cbnz	r1, 8005804 <_reclaim_reent+0xa0>
 80057f2:	3504      	adds	r5, #4
 80057f4:	6a63      	ldr	r3, [r4, #36]	; 0x24
 80057f6:	2d80      	cmp	r5, #128	; 0x80
 80057f8:	68d9      	ldr	r1, [r3, #12]
 80057fa:	d1f8      	bne.n	80057ee <_reclaim_reent+0x8a>
 80057fc:	4620      	mov	r0, r4
 80057fe:	f000 f819 	bl	8005834 <_free_r>
 8005802:	e7ba      	b.n	800577a <_reclaim_reent+0x16>
 8005804:	680e      	ldr	r6, [r1, #0]
 8005806:	4620      	mov	r0, r4
 8005808:	f000 f814 	bl	8005834 <_free_r>
 800580c:	4631      	mov	r1, r6
 800580e:	e7ef      	b.n	80057f0 <_reclaim_reent+0x8c>
 8005810:	2500      	movs	r5, #0
 8005812:	e7ef      	b.n	80057f4 <_reclaim_reent+0x90>
 8005814:	bd70      	pop	{r4, r5, r6, pc}
 8005816:	bf00      	nop
 8005818:	20000010 	.word	0x20000010

0800581c <__malloc_lock>:
 800581c:	4801      	ldr	r0, [pc, #4]	; (8005824 <__malloc_lock+0x8>)
 800581e:	f7ff bf7b 	b.w	8005718 <__retarget_lock_acquire_recursive>
 8005822:	bf00      	nop
 8005824:	20002d9c 	.word	0x20002d9c

08005828 <__malloc_unlock>:
 8005828:	4801      	ldr	r0, [pc, #4]	; (8005830 <__malloc_unlock+0x8>)
 800582a:	f7ff bf76 	b.w	800571a <__retarget_lock_release_recursive>
 800582e:	bf00      	nop
 8005830:	20002d9c 	.word	0x20002d9c

08005834 <_free_r>:
 8005834:	b537      	push	{r0, r1, r2, r4, r5, lr}
 8005836:	2900      	cmp	r1, #0
 8005838:	d044      	beq.n	80058c4 <_free_r+0x90>
 800583a:	f851 3c04 	ldr.w	r3, [r1, #-4]
 800583e:	9001      	str	r0, [sp, #4]
 8005840:	2b00      	cmp	r3, #0
 8005842:	f1a1 0404 	sub.w	r4, r1, #4
 8005846:	bfb8      	it	lt
 8005848:	18e4      	addlt	r4, r4, r3
 800584a:	f7ff ffe7 	bl	800581c <__malloc_lock>
 800584e:	4a1e      	ldr	r2, [pc, #120]	; (80058c8 <_free_r+0x94>)
 8005850:	9801      	ldr	r0, [sp, #4]
 8005852:	6813      	ldr	r3, [r2, #0]
 8005854:	b933      	cbnz	r3, 8005864 <_free_r+0x30>
 8005856:	6063      	str	r3, [r4, #4]
 8005858:	6014      	str	r4, [r2, #0]
 800585a:	b003      	add	sp, #12
 800585c:	e8bd 4030 	ldmia.w	sp!, {r4, r5, lr}
 8005860:	f7ff bfe2 	b.w	8005828 <__malloc_unlock>
 8005864:	42a3      	cmp	r3, r4
 8005866:	d908      	bls.n	800587a <_free_r+0x46>
 8005868:	6825      	ldr	r5, [r4, #0]
 800586a:	1961      	adds	r1, r4, r5
 800586c:	428b      	cmp	r3, r1
 800586e:	bf01      	itttt	eq
 8005870:	6819      	ldreq	r1, [r3, #0]
 8005872:	685b      	ldreq	r3, [r3, #4]
 8005874:	1949      	addeq	r1, r1, r5
 8005876:	6021      	streq	r1, [r4, #0]
 8005878:	e7ed      	b.n	8005856 <_free_r+0x22>
 800587a:	461a      	mov	r2, r3
 800587c:	685b      	ldr	r3, [r3, #4]
 800587e:	b10b      	cbz	r3, 8005884 <_free_r+0x50>
 8005880:	42a3      	cmp	r3, r4
 8005882:	d9fa      	bls.n	800587a <_free_r+0x46>
 8005884:	6811      	ldr	r1, [r2, #0]
 8005886:	1855      	adds	r5, r2, r1
 8005888:	42a5      	cmp	r5, r4
 800588a:	d10b      	bne.n	80058a4 <_free_r+0x70>
 800588c:	6824      	ldr	r4, [r4, #0]
 800588e:	4421      	add	r1, r4
 8005890:	1854      	adds	r4, r2, r1
 8005892:	42a3      	cmp	r3, r4
 8005894:	6011      	str	r1, [r2, #0]
 8005896:	d1e0      	bne.n	800585a <_free_r+0x26>
 8005898:	681c      	ldr	r4, [r3, #0]
 800589a:	685b      	ldr	r3, [r3, #4]
 800589c:	6053      	str	r3, [r2, #4]
 800589e:	4421      	add	r1, r4
 80058a0:	6011      	str	r1, [r2, #0]
 80058a2:	e7da      	b.n	800585a <_free_r+0x26>
 80058a4:	d902      	bls.n	80058ac <_free_r+0x78>
 80058a6:	230c      	movs	r3, #12
 80058a8:	6003      	str	r3, [r0, #0]
 80058aa:	e7d6      	b.n	800585a <_free_r+0x26>
 80058ac:	6825      	ldr	r5, [r4, #0]
 80058ae:	1961      	adds	r1, r4, r5
 80058b0:	428b      	cmp	r3, r1
 80058b2:	bf04      	itt	eq
 80058b4:	6819      	ldreq	r1, [r3, #0]
 80058b6:	685b      	ldreq	r3, [r3, #4]
 80058b8:	6063      	str	r3, [r4, #4]
 80058ba:	bf04      	itt	eq
 80058bc:	1949      	addeq	r1, r1, r5
 80058be:	6021      	streq	r1, [r4, #0]
 80058c0:	6054      	str	r4, [r2, #4]
 80058c2:	e7ca      	b.n	800585a <_free_r+0x26>
 80058c4:	b003      	add	sp, #12
 80058c6:	bd30      	pop	{r4, r5, pc}
 80058c8:	20002da0 	.word	0x20002da0

080058cc <_init>:
 80058cc:	b5f8      	push	{r3, r4, r5, r6, r7, lr}
 80058ce:	bf00      	nop
 80058d0:	bcf8      	pop	{r3, r4, r5, r6, r7}
 80058d2:	bc08      	pop	{r3}
 80058d4:	469e      	mov	lr, r3
 80058d6:	4770      	bx	lr

080058d8 <_fini>:
 80058d8:	b5f8      	push	{r3, r4, r5, r6, r7, lr}
 80058da:	bf00      	nop
 80058dc:	bcf8      	pop	{r3, r4, r5, r6, r7}
 80058de:	bc08      	pop	{r3}
 80058e0:	469e      	mov	lr, r3
 80058e2:	4770      	bx	lr
